
temp_oled_wifi.elf:     file format elf32-avr

Sections:
Idx Name          Size      VMA       LMA       File off  Algn
  0 .data         00000470  00800100  00004784  00004818  2**0
                  CONTENTS, ALLOC, LOAD, DATA
  1 .text         00004784  00000000  00000000  00000094  2**1
                  CONTENTS, ALLOC, LOAD, READONLY, CODE
  2 .bss          000002f6  00800570  00800570  00004c88  2**0
                  ALLOC
  3 .comment      0000005c  00000000  00000000  00004c88  2**0
                  CONTENTS, READONLY
  4 .note.gnu.avr.deviceinfo 00000040  00000000  00000000  00004ce4  2**2
                  CONTENTS, READONLY

Disassembly of section .text:

00000000 <__vectors>:
       0:	0c 94 0d 01 	jmp	0x21a	; 0x21a <__dtors_end>
       4:	0c 94 42 1b 	jmp	0x3684	; 0x3684 <__vector_1>
       8:	0c 94 6f 1b 	jmp	0x36de	; 0x36de <__vector_2>
       c:	0c 94 15 15 	jmp	0x2a2a	; 0x2a2a <__vector_3>
      10:	0c 94 15 15 	jmp	0x2a2a	; 0x2a2a <__vector_3>
      14:	0c 94 15 15 	jmp	0x2a2a	; 0x2a2a <__vector_3>
      18:	0c 94 35 01 	jmp	0x26a	; 0x26a <__bad_interrupt>
      1c:	0c 94 35 01 	jmp	0x26a	; 0x26a <__bad_interrupt>
      20:	0c 94 35 01 	jmp	0x26a	; 0x26a <__bad_interrupt>
      24:	0c 94 35 01 	jmp	0x26a	; 0x26a <__bad_interrupt>
      28:	0c 94 35 01 	jmp	0x26a	; 0x26a <__bad_interrupt>
      2c:	0c 94 35 01 	jmp	0x26a	; 0x26a <__bad_interrupt>
      30:	0c 94 35 01 	jmp	0x26a	; 0x26a <__bad_interrupt>
      34:	0c 94 35 01 	jmp	0x26a	; 0x26a <__bad_interrupt>
      38:	0c 94 35 01 	jmp	0x26a	; 0x26a <__bad_interrupt>
      3c:	0c 94 35 01 	jmp	0x26a	; 0x26a <__bad_interrupt>
      40:	0c 94 9c 1b 	jmp	0x3738	; 0x3738 <__vector_16>
      44:	0c 94 35 01 	jmp	0x26a	; 0x26a <__bad_interrupt>
      48:	0c 94 c7 17 	jmp	0x2f8e	; 0x2f8e <__vector_18>
      4c:	0c 94 f9 17 	jmp	0x2ff2	; 0x2ff2 <__vector_19>
      50:	0c 94 35 01 	jmp	0x26a	; 0x26a <__bad_interrupt>
      54:	0c 94 35 01 	jmp	0x26a	; 0x26a <__bad_interrupt>
      58:	0c 94 35 01 	jmp	0x26a	; 0x26a <__bad_interrupt>
      5c:	0c 94 35 01 	jmp	0x26a	; 0x26a <__bad_interrupt>
      60:	0c 94 35 01 	jmp	0x26a	; 0x26a <__bad_interrupt>
      64:	0c 94 35 01 	jmp	0x26a	; 0x26a <__bad_interrupt>
      68:	da 04       	cpc	r13, r10
      6a:	e7 04       	cpc	r14, r7
      6c:	eb 04       	cpc	r14, r11
      6e:	f1 04       	cpc	r15, r1
      70:	f7 04       	cpc	r15, r7
      72:	0c 05       	cpc	r16, r12
      74:	15 05       	cpc	r17, r5
      76:	1c 05       	cpc	r17, r12
      78:	21 05       	cpc	r18, r1
      7a:	27 05       	cpc	r18, r7
      7c:	27 05       	cpc	r18, r7
      7e:	27 05       	cpc	r18, r7
      80:	27 05       	cpc	r18, r7
      82:	27 05       	cpc	r18, r7
      84:	27 05       	cpc	r18, r7
      86:	27 05       	cpc	r18, r7
      88:	27 05       	cpc	r18, r7
      8a:	27 05       	cpc	r18, r7
      8c:	27 05       	cpc	r18, r7
      8e:	27 05       	cpc	r18, r7
      90:	27 05       	cpc	r18, r7
      92:	27 05       	cpc	r18, r7
      94:	27 05       	cpc	r18, r7
      96:	27 05       	cpc	r18, r7
      98:	27 05       	cpc	r18, r7
      9a:	27 05       	cpc	r18, r7
      9c:	27 05       	cpc	r18, r7
      9e:	27 05       	cpc	r18, r7
      a0:	27 05       	cpc	r18, r7
      a2:	27 05       	cpc	r18, r7
      a4:	27 05       	cpc	r18, r7
      a6:	27 05       	cpc	r18, r7
      a8:	da 04       	cpc	r13, r10
      aa:	e0 04       	cpc	r14, r0
      ac:	e7 04       	cpc	r14, r7
      ae:	eb 04       	cpc	r14, r11
      b0:	f1 04       	cpc	r15, r1
      b2:	f7 04       	cpc	r15, r7
      b4:	fd 04       	cpc	r15, r13
      b6:	01 05       	cpc	r16, r1
      b8:	06 05       	cpc	r16, r6

000000ba <__trampolines_end>:
      ba:	00 5e       	subi	r16, 0xE0	; 224
      bc:	bc e2       	ldi	r27, 0x2C	; 44
      be:	61 3f       	cpi	r22, 0xF1	; 241
      c0:	dd 83       	std	Y+5, r29	; 0x05
      c2:	c2 9c       	mul	r12, r2
      c4:	7e 20       	and	r7, r14
      c6:	a3 fd       	sbrc	r26, 3
      c8:	1f 41       	sbci	r17, 0x1F	; 31
      ca:	9d c3       	rjmp	.+1850   	; 0x806 <_ZN11TinyGPSPlus16endOfTermHandlerEv+0x62>
      cc:	21 7f       	andi	r18, 0xF1	; 241
      ce:	fc a2       	std	Y+36, r15	; 0x24
      d0:	40 1e       	adc	r4, r16
      d2:	5f 01       	movw	r10, r30
      d4:	e3 bd       	out	0x23, r30	; 35
      d6:	3e 60       	ori	r19, 0x0E	; 14
      d8:	82 dc       	rcall	.-1788   	; 0xfffff9de <__eeprom_end+0xff7ef9de>
      da:	23 7d       	andi	r18, 0xD3	; 211
      dc:	9f c1       	rjmp	.+830    	; 0x41c <_ZN11TinyGPSPlus12parseDecimalEPKc+0x6a>
      de:	42 1c       	adc	r4, r2
      e0:	fe a0       	ldd	r15, Y+38	; 0x26
      e2:	e1 bf       	out	0x31, r30	; 49
      e4:	5d 03       	fmul	r21, r21
      e6:	80 de       	rcall	.-768    	; 0xfffffde8 <__eeprom_end+0xff7efde8>
      e8:	3c 62       	ori	r19, 0x2C	; 44
      ea:	be e0       	ldi	r27, 0x0E	; 14
      ec:	02 5c       	subi	r16, 0xC2	; 194
      ee:	df 81       	ldd	r29, Y+7	; 0x07
      f0:	63 3d       	cpi	r22, 0xD3	; 211
      f2:	7c 22       	and	r7, r28
      f4:	c0 9e       	mul	r12, r16
      f6:	1d 43       	sbci	r17, 0x3D	; 61
      f8:	a1 ff       	sbrs	r26, 1
      fa:	46 18       	sub	r4, r6
      fc:	fa a4       	ldd	r15, Y+42	; 0x2a
      fe:	27 79       	andi	r18, 0x97	; 151
     100:	9b c5       	rjmp	.+2870   	; 0xc38 <_ZN17DallasTemperature10getAddressEPhh+0x22>
     102:	84 da       	rcall	.-2808   	; 0xfffff60c <__eeprom_end+0xff7ef60c>
     104:	38 66       	ori	r19, 0x68	; 104
     106:	e5 bb       	out	0x15, r30	; 21
     108:	59 07       	cpc	r21, r25
     10a:	db 85       	ldd	r29, Y+11	; 0x0b
     10c:	67 39       	cpi	r22, 0x97	; 151
     10e:	ba e4       	ldi	r27, 0x4A	; 74
     110:	06 58       	subi	r16, 0x86	; 134
     112:	19 47       	sbci	r17, 0x79	; 121
     114:	a5 fb       	bst	r26, 5
     116:	78 26       	eor	r7, r24
     118:	c4 9a       	sbi	0x18, 4	; 24
     11a:	65 3b       	cpi	r22, 0xB5	; 181
     11c:	d9 87       	std	Y+9, r29	; 0x09
     11e:	04 5a       	subi	r16, 0xA4	; 164
     120:	b8 e6       	ldi	r27, 0x68	; 104
     122:	a7 f9       	bld	r26, 7
     124:	1b 45       	sbci	r17, 0x5B	; 91
     126:	c6 98       	cbi	0x18, 6	; 24
     128:	7a 24       	eor	r7, r10
     12a:	f8 a6       	std	Y+40, r15	; 0x28
     12c:	44 1a       	sub	r4, r20
     12e:	99 c7       	rjmp	.+3890   	; 0x1062 <_ZN17DallasTemperature20calculateTemperatureEPhS0_+0x46>
     130:	25 7b       	andi	r18, 0xB5	; 181
     132:	3a 64       	ori	r19, 0x4A	; 74
     134:	86 d8       	rcall	.-3828   	; 0xfffff242 <__eeprom_end+0xff7ef242>
     136:	5b 05       	cpc	r21, r11
     138:	e7 b9       	out	0x07, r30	; 7
     13a:	8c d2       	rcall	.+1304   	; 0x654 <_ZN15TinyGPSLocation3lngEv+0x56>
     13c:	30 6e       	ori	r19, 0xE0	; 224
     13e:	ed b3       	in	r30, 0x1d	; 29
     140:	51 0f       	add	r21, r17
     142:	4e 10       	cpse	r4, r14
     144:	f2 ac       	ldd	r15, Z+58	; 0x3a
     146:	2f 71       	andi	r18, 0x1F	; 31
     148:	93 cd       	rjmp	.-1242   	; 0xfffffc70 <__eeprom_end+0xff7efc70>
     14a:	11 4f       	sbci	r17, 0xF1	; 241
     14c:	ad f3       	brhs	.-22     	; 0x138 <__trampolines_end+0x7e>
     14e:	70 2e       	mov	r7, r16
     150:	cc 92       	st	X, r12
     152:	d3 8d       	ldd	r29, Z+27	; 0x1b
     154:	6f 31       	cpi	r22, 0x1F	; 31
     156:	b2 ec       	ldi	r27, 0xC2	; 194
     158:	0e 50       	subi	r16, 0x0E	; 14
     15a:	af f1       	brie	.+106    	; 0x1c6 <digital_pin_to_timer_PGM+0xc>
     15c:	13 4d       	sbci	r17, 0xD3	; 211
     15e:	ce 90       	ld	r12, -X
     160:	72 2c       	mov	r7, r2
     162:	6d 33       	cpi	r22, 0x3D	; 61
     164:	d1 8f       	std	Z+25, r29	; 0x19
     166:	0c 52       	subi	r16, 0x2C	; 44
     168:	b0 ee       	ldi	r27, 0xE0	; 224
     16a:	32 6c       	ori	r19, 0xC2	; 194
     16c:	8e d0       	rcall	.+284    	; 0x28a <_ZN11TinyGPSPlusC1Ev+0x1c>
     16e:	53 0d       	add	r21, r3
     170:	ef b1       	in	r30, 0x0f	; 15
     172:	f0 ae       	std	Z+56, r15	; 0x38
     174:	4c 12       	cpse	r4, r28
     176:	91 cf       	rjmp	.-222    	; 0x9a <__SREG__+0x5b>
     178:	2d 73       	andi	r18, 0x3D	; 61
     17a:	ca 94       	dec	r12
     17c:	76 28       	or	r7, r6
     17e:	ab f5       	brvc	.+106    	; 0x1ea <digital_pin_to_port_PGM+0x8>
     180:	17 49       	sbci	r17, 0x97	; 151
     182:	08 56       	subi	r16, 0x68	; 104
     184:	b4 ea       	ldi	r27, 0xA4	; 164
     186:	69 37       	cpi	r22, 0x79	; 121
     188:	d5 8b       	std	Z+21, r29	; 0x15
     18a:	57 09       	sbc	r21, r7
     18c:	eb b5       	in	r30, 0x2b	; 43
     18e:	36 68       	ori	r19, 0x86	; 134
     190:	8a d4       	rcall	.+2324   	; 0xaa6 <__stack+0x1a7>
     192:	95 cb       	rjmp	.-2262   	; 0xfffff8be <__eeprom_end+0xff7ef8be>
     194:	29 77       	andi	r18, 0x79	; 121
     196:	f4 aa       	std	Z+52, r15	; 0x34
     198:	48 16       	cp	r4, r24
     19a:	e9 b7       	in	r30, 0x39	; 57
     19c:	55 0b       	sbc	r21, r21
     19e:	88 d6       	rcall	.+3344   	; 0xeb0 <_ZN17DallasTemperature5beginEv+0x7e>
     1a0:	34 6a       	ori	r19, 0xA4	; 164
     1a2:	2b 75       	andi	r18, 0x5B	; 91
     1a4:	97 c9       	rjmp	.-3282   	; 0xfffff4d4 <__eeprom_end+0xff7ef4d4>
     1a6:	4a 14       	cp	r4, r10
     1a8:	f6 a8       	ldd	r15, Z+54	; 0x36
     1aa:	74 2a       	or	r7, r20
     1ac:	c8 96       	adiw	r24, 0x38	; 56
     1ae:	15 4b       	sbci	r17, 0xB5	; 181
     1b0:	a9 f7       	brne	.-22     	; 0x19c <__trampolines_end+0xe2>
     1b2:	b6 e8       	ldi	r27, 0x86	; 134
     1b4:	0a 54       	subi	r16, 0x4A	; 74
     1b6:	d7 89       	ldd	r29, Z+23	; 0x17
     1b8:	6b 35       	cpi	r22, 0x5B	; 91

000001ba <digital_pin_to_timer_PGM>:
     1ba:	00 00 00 08 00 02 01 00 00 03 04 07 00 00 00 00     ................
     1ca:	00 00 00 00                                         ....

000001ce <digital_pin_to_bit_mask_PGM>:
     1ce:	01 02 04 08 10 20 40 80 01 02 04 08 10 20 01 02     ..... @...... ..
     1de:	04 08 10 20                                         ... 

000001e2 <digital_pin_to_port_PGM>:
     1e2:	04 04 04 04 04 04 04 04 02 02 02 02 02 02 03 03     ................
     1f2:	03 03 03 03                                         ....

000001f6 <port_to_input_PGM>:
     1f6:	00 00 00 00 23 00 26 00 29 00                       ....#.&.).

00000200 <port_to_output_PGM>:
     200:	00 00 00 00 25 00 28 00 2b 00                       ....%.(.+.

0000020a <port_to_mode_PGM>:
     20a:	00 00 00 00 24 00 27 00 2a 00                       ....$.'.*.

00000214 <__ctors_start>:
     214:	0e 13       	cpse	r16, r30
     216:	29 18       	sub	r2, r9

00000218 <__ctors_end>:
     218:	c3 13       	cpse	r28, r19

0000021a <__dtors_end>:
     21a:	11 24       	eor	r1, r1
     21c:	1f be       	out	0x3f, r1	; 63
     21e:	cf ef       	ldi	r28, 0xFF	; 255
     220:	d8 e0       	ldi	r29, 0x08	; 8
     222:	de bf       	out	0x3e, r29	; 62
     224:	cd bf       	out	0x3d, r28	; 61

00000226 <__do_copy_data>:
     226:	15 e0       	ldi	r17, 0x05	; 5
     228:	a0 e0       	ldi	r26, 0x00	; 0
     22a:	b1 e0       	ldi	r27, 0x01	; 1
     22c:	e4 e8       	ldi	r30, 0x84	; 132
     22e:	f7 e4       	ldi	r31, 0x47	; 71
     230:	02 c0       	rjmp	.+4      	; 0x236 <__do_copy_data+0x10>
     232:	05 90       	lpm	r0, Z+
     234:	0d 92       	st	X+, r0
     236:	a0 37       	cpi	r26, 0x70	; 112
     238:	b1 07       	cpc	r27, r17
     23a:	d9 f7       	brne	.-10     	; 0x232 <__do_copy_data+0xc>

0000023c <__do_clear_bss>:
     23c:	28 e0       	ldi	r18, 0x08	; 8
     23e:	a0 e7       	ldi	r26, 0x70	; 112
     240:	b5 e0       	ldi	r27, 0x05	; 5
     242:	01 c0       	rjmp	.+2      	; 0x246 <.do_clear_bss_start>

00000244 <.do_clear_bss_loop>:
     244:	1d 92       	st	X+, r1

00000246 <.do_clear_bss_start>:
     246:	a6 36       	cpi	r26, 0x66	; 102
     248:	b2 07       	cpc	r27, r18
     24a:	e1 f7       	brne	.-8      	; 0x244 <.do_clear_bss_loop>

0000024c <__do_global_ctors>:
     24c:	11 e0       	ldi	r17, 0x01	; 1
     24e:	cc e0       	ldi	r28, 0x0C	; 12
     250:	d1 e0       	ldi	r29, 0x01	; 1
     252:	04 c0       	rjmp	.+8      	; 0x25c <__do_global_ctors+0x10>
     254:	21 97       	sbiw	r28, 0x01	; 1
     256:	fe 01       	movw	r30, r28
     258:	0e 94 06 20 	call	0x400c	; 0x400c <__tablejump2__>
     25c:	ca 30       	cpi	r28, 0x0A	; 10
     25e:	d1 07       	cpc	r29, r17
     260:	c9 f7       	brne	.-14     	; 0x254 <__do_global_ctors+0x8>
     262:	0e 94 58 18 	call	0x30b0	; 0x30b0 <main>
     266:	0c 94 b5 23 	jmp	0x476a	; 0x476a <__do_global_dtors>

0000026a <__bad_interrupt>:
     26a:	0c 94 00 00 	jmp	0	; 0x0 <__vectors>

0000026e <_ZN11TinyGPSPlusC1Ev>:
     26e:	fc 01       	movw	r30, r24
     270:	10 82       	st	Z, r1
     272:	11 82       	std	Z+1, r1	; 0x01
     274:	13 82       	std	Z+3, r1	; 0x03
     276:	12 82       	std	Z+2, r1	; 0x02
     278:	14 82       	std	Z+4, r1	; 0x04
     27a:	15 82       	std	Z+5, r1	; 0x05
     27c:	16 82       	std	Z+6, r1	; 0x06
     27e:	17 82       	std	Z+7, r1	; 0x07
     280:	10 86       	std	Z+8, r1	; 0x08
     282:	12 86       	std	Z+10, r1	; 0x0a
     284:	11 86       	std	Z+9, r1	; 0x09
     286:	13 86       	std	Z+11, r1	; 0x0b
     288:	14 86       	std	Z+12, r1	; 0x0c
     28a:	15 86       	std	Z+13, r1	; 0x0d
     28c:	16 86       	std	Z+14, r1	; 0x0e
     28e:	17 86       	std	Z+15, r1	; 0x0f
     290:	11 8a       	std	Z+17, r1	; 0x11
     292:	10 8a       	std	Z+16, r1	; 0x10
     294:	12 8a       	std	Z+18, r1	; 0x12
     296:	13 8a       	std	Z+19, r1	; 0x13
     298:	14 8a       	std	Z+20, r1	; 0x14
     29a:	15 8a       	std	Z+21, r1	; 0x15
     29c:	16 8a       	std	Z+22, r1	; 0x16
     29e:	10 8e       	std	Z+24, r1	; 0x18
     2a0:	17 8a       	std	Z+23, r1	; 0x17
     2a2:	11 8e       	std	Z+25, r1	; 0x19
     2a4:	12 8e       	std	Z+26, r1	; 0x1a
     2a6:	13 8e       	std	Z+27, r1	; 0x1b
     2a8:	14 8e       	std	Z+28, r1	; 0x1c
     2aa:	15 8e       	std	Z+29, r1	; 0x1d
     2ac:	12 a2       	std	Z+34, r1	; 0x22
     2ae:	13 a2       	std	Z+35, r1	; 0x23
     2b0:	14 a2       	std	Z+36, r1	; 0x24
     2b2:	15 a2       	std	Z+37, r1	; 0x25
     2b4:	16 a2       	std	Z+38, r1	; 0x26
     2b6:	17 a2       	std	Z+39, r1	; 0x27
     2b8:	10 aa       	std	Z+48, r1	; 0x30
     2ba:	11 aa       	std	Z+49, r1	; 0x31
     2bc:	12 aa       	std	Z+50, r1	; 0x32
     2be:	13 aa       	std	Z+51, r1	; 0x33
     2c0:	14 aa       	std	Z+52, r1	; 0x34
     2c2:	15 aa       	std	Z+53, r1	; 0x35
     2c4:	16 ae       	std	Z+62, r1	; 0x3e
     2c6:	17 ae       	std	Z+63, r1	; 0x3f
     2c8:	dc 01       	movw	r26, r24
     2ca:	de 96       	adiw	r26, 0x3e	; 62
     2cc:	16 96       	adiw	r26, 0x06	; 6
     2ce:	1d 92       	st	X+, r1
     2d0:	1d 92       	st	X+, r1
     2d2:	1d 92       	st	X+, r1
     2d4:	1c 92       	st	X, r1
     2d6:	19 97       	sbiw	r26, 0x09	; 9
     2d8:	1e 96       	adiw	r26, 0x0e	; 14
     2da:	1c 92       	st	X, r1
     2dc:	11 96       	adiw	r26, 0x01	; 1
     2de:	1c 92       	st	X, r1
     2e0:	11 97       	sbiw	r26, 0x01	; 1
     2e2:	16 96       	adiw	r26, 0x06	; 6
     2e4:	1d 92       	st	X+, r1
     2e6:	1d 92       	st	X+, r1
     2e8:	1d 92       	st	X+, r1
     2ea:	1c 92       	st	X, r1
     2ec:	19 97       	sbiw	r26, 0x09	; 9
     2ee:	1e 96       	adiw	r26, 0x0e	; 14
     2f0:	1c 92       	st	X, r1
     2f2:	11 96       	adiw	r26, 0x01	; 1
     2f4:	1c 92       	st	X, r1
     2f6:	11 97       	sbiw	r26, 0x01	; 1
     2f8:	16 96       	adiw	r26, 0x06	; 6
     2fa:	1d 92       	st	X+, r1
     2fc:	1d 92       	st	X+, r1
     2fe:	1d 92       	st	X+, r1
     300:	1c 92       	st	X, r1
     302:	19 97       	sbiw	r26, 0x09	; 9
     304:	1e 96       	adiw	r26, 0x0e	; 14
     306:	1c 92       	st	X, r1
     308:	11 96       	adiw	r26, 0x01	; 1
     30a:	1c 92       	st	X, r1
     30c:	11 97       	sbiw	r26, 0x01	; 1
     30e:	16 96       	adiw	r26, 0x06	; 6
     310:	1d 92       	st	X+, r1
     312:	1d 92       	st	X+, r1
     314:	1d 92       	st	X+, r1
     316:	1c 92       	st	X, r1
     318:	19 97       	sbiw	r26, 0x09	; 9
     31a:	1e 96       	adiw	r26, 0x0e	; 14
     31c:	1c 92       	st	X, r1
     31e:	11 96       	adiw	r26, 0x01	; 1
     320:	1c 92       	st	X, r1
     322:	11 97       	sbiw	r26, 0x01	; 1
     324:	16 96       	adiw	r26, 0x06	; 6
     326:	1d 92       	st	X+, r1
     328:	1d 92       	st	X+, r1
     32a:	1d 92       	st	X+, r1
     32c:	1c 92       	st	X, r1
     32e:	19 97       	sbiw	r26, 0x09	; 9
     330:	1e 96       	adiw	r26, 0x0e	; 14
     332:	1c 92       	st	X, r1
     334:	11 96       	adiw	r26, 0x01	; 1
     336:	1c 92       	st	X, r1
     338:	50 96       	adiw	r26, 0x10	; 16
     33a:	82 e0       	ldi	r24, 0x02	; 2
     33c:	8c 93       	st	X, r24
     33e:	11 96       	adiw	r26, 0x01	; 1
     340:	1c 92       	st	X, r1
     342:	11 96       	adiw	r26, 0x01	; 1
     344:	1c 92       	st	X, r1
     346:	11 96       	adiw	r26, 0x01	; 1
     348:	1c 92       	st	X, r1
     34a:	11 96       	adiw	r26, 0x01	; 1
     34c:	11 96       	adiw	r26, 0x01	; 1
     34e:	1c 92       	st	X, r1
     350:	1e 92       	st	-X, r1
     352:	12 96       	adiw	r26, 0x02	; 2
     354:	11 96       	adiw	r26, 0x01	; 1
     356:	1c 92       	st	X, r1
     358:	1e 92       	st	-X, r1
     35a:	12 96       	adiw	r26, 0x02	; 2
     35c:	1d 92       	st	X+, r1
     35e:	1d 92       	st	X+, r1
     360:	1d 92       	st	X+, r1
     362:	1c 92       	st	X, r1
     364:	13 97       	sbiw	r26, 0x03	; 3
     366:	14 96       	adiw	r26, 0x04	; 4
     368:	1d 92       	st	X+, r1
     36a:	1d 92       	st	X+, r1
     36c:	1d 92       	st	X+, r1
     36e:	1c 92       	st	X, r1
     370:	13 97       	sbiw	r26, 0x03	; 3
     372:	14 96       	adiw	r26, 0x04	; 4
     374:	1d 92       	st	X+, r1
     376:	1d 92       	st	X+, r1
     378:	1d 92       	st	X+, r1
     37a:	1c 92       	st	X, r1
     37c:	13 97       	sbiw	r26, 0x03	; 3
     37e:	14 96       	adiw	r26, 0x04	; 4
     380:	1d 92       	st	X+, r1
     382:	1d 92       	st	X+, r1
     384:	1d 92       	st	X+, r1
     386:	1c 92       	st	X, r1
     388:	13 97       	sbiw	r26, 0x03	; 3
     38a:	ea 57       	subi	r30, 0x7A	; 122
     38c:	ff 4f       	sbci	r31, 0xFF	; 255
     38e:	10 82       	st	Z, r1
     390:	08 95       	ret

00000392 <_ZN11TinyGPSPlus7fromHexEc>:
     392:	2f eb       	ldi	r18, 0xBF	; 191
     394:	26 0f       	add	r18, r22
     396:	86 2f       	mov	r24, r22
     398:	90 e0       	ldi	r25, 0x00	; 0
     39a:	26 30       	cpi	r18, 0x06	; 6
     39c:	10 f4       	brcc	.+4      	; 0x3a2 <_ZN11TinyGPSPlus7fromHexEc+0x10>
     39e:	c7 97       	sbiw	r24, 0x37	; 55
     3a0:	08 95       	ret
     3a2:	61 56       	subi	r22, 0x61	; 97
     3a4:	66 30       	cpi	r22, 0x06	; 6
     3a6:	18 f4       	brcc	.+6      	; 0x3ae <_ZN11TinyGPSPlus7fromHexEc+0x1c>
     3a8:	87 55       	subi	r24, 0x57	; 87
     3aa:	91 09       	sbc	r25, r1
     3ac:	08 95       	ret
     3ae:	c0 97       	sbiw	r24, 0x30	; 48
     3b0:	08 95       	ret

000003b2 <_ZN11TinyGPSPlus12parseDecimalEPKc>:
     3b2:	ff 92       	push	r15
     3b4:	0f 93       	push	r16
     3b6:	1f 93       	push	r17
     3b8:	cf 93       	push	r28
     3ba:	df 93       	push	r29
     3bc:	ec 01       	movw	r28, r24
     3be:	ff 24       	eor	r15, r15
     3c0:	f3 94       	inc	r15
     3c2:	88 81       	ld	r24, Y
     3c4:	8d 32       	cpi	r24, 0x2D	; 45
     3c6:	11 f0       	breq	.+4      	; 0x3cc <_ZN11TinyGPSPlus12parseDecimalEPKc+0x1a>
     3c8:	f1 2c       	mov	r15, r1
     3ca:	01 c0       	rjmp	.+2      	; 0x3ce <_ZN11TinyGPSPlus12parseDecimalEPKc+0x1c>
     3cc:	21 96       	adiw	r28, 0x01	; 1
     3ce:	ce 01       	movw	r24, r28
     3d0:	0e 94 42 20 	call	0x4084	; 0x4084 <atol>
     3d4:	9b 01       	movw	r18, r22
     3d6:	ac 01       	movw	r20, r24
     3d8:	a4 e6       	ldi	r26, 0x64	; 100
     3da:	b0 e0       	ldi	r27, 0x00	; 0
     3dc:	0e 94 0c 20 	call	0x4018	; 0x4018 <__muluhisi3>
     3e0:	fe 01       	movw	r30, r28
     3e2:	49 91       	ld	r20, Y+
     3e4:	24 2f       	mov	r18, r20
     3e6:	30 e0       	ldi	r19, 0x00	; 0
     3e8:	20 53       	subi	r18, 0x30	; 48
     3ea:	31 09       	sbc	r19, r1
     3ec:	2a 30       	cpi	r18, 0x0A	; 10
     3ee:	31 05       	cpc	r19, r1
     3f0:	b8 f3       	brcs	.-18     	; 0x3e0 <_ZN11TinyGPSPlus12parseDecimalEPKc+0x2e>
     3f2:	4e 32       	cpi	r20, 0x2E	; 46
     3f4:	21 f5       	brne	.+72     	; 0x43e <_ZN11TinyGPSPlus12parseDecimalEPKc+0x8c>
     3f6:	21 81       	ldd	r18, Z+1	; 0x01
     3f8:	30 e0       	ldi	r19, 0x00	; 0
     3fa:	20 53       	subi	r18, 0x30	; 48
     3fc:	31 09       	sbc	r19, r1
     3fe:	2a 30       	cpi	r18, 0x0A	; 10
     400:	31 05       	cpc	r19, r1
     402:	e8 f4       	brcc	.+58     	; 0x43e <_ZN11TinyGPSPlus12parseDecimalEPKc+0x8c>
     404:	4a e0       	ldi	r20, 0x0A	; 10
     406:	42 9f       	mul	r20, r18
     408:	80 01       	movw	r16, r0
     40a:	43 9f       	mul	r20, r19
     40c:	10 0d       	add	r17, r0
     40e:	11 24       	eor	r1, r1
     410:	01 2e       	mov	r0, r17
     412:	00 0c       	add	r0, r0
     414:	22 0b       	sbc	r18, r18
     416:	33 0b       	sbc	r19, r19
     418:	60 0f       	add	r22, r16
     41a:	71 1f       	adc	r23, r17
     41c:	82 1f       	adc	r24, r18
     41e:	93 1f       	adc	r25, r19
     420:	02 81       	ldd	r16, Z+2	; 0x02
     422:	10 e0       	ldi	r17, 0x00	; 0
     424:	00 53       	subi	r16, 0x30	; 48
     426:	11 09       	sbc	r17, r1
     428:	0a 30       	cpi	r16, 0x0A	; 10
     42a:	11 05       	cpc	r17, r1
     42c:	40 f4       	brcc	.+16     	; 0x43e <_ZN11TinyGPSPlus12parseDecimalEPKc+0x8c>
     42e:	01 2e       	mov	r0, r17
     430:	00 0c       	add	r0, r0
     432:	22 0b       	sbc	r18, r18
     434:	33 0b       	sbc	r19, r19
     436:	60 0f       	add	r22, r16
     438:	71 1f       	adc	r23, r17
     43a:	82 1f       	adc	r24, r18
     43c:	93 1f       	adc	r25, r19
     43e:	ff 20       	and	r15, r15
     440:	39 f0       	breq	.+14     	; 0x450 <_ZN11TinyGPSPlus12parseDecimalEPKc+0x9e>
     442:	90 95       	com	r25
     444:	80 95       	com	r24
     446:	70 95       	com	r23
     448:	61 95       	neg	r22
     44a:	7f 4f       	sbci	r23, 0xFF	; 255
     44c:	8f 4f       	sbci	r24, 0xFF	; 255
     44e:	9f 4f       	sbci	r25, 0xFF	; 255
     450:	df 91       	pop	r29
     452:	cf 91       	pop	r28
     454:	1f 91       	pop	r17
     456:	0f 91       	pop	r16
     458:	ff 90       	pop	r15
     45a:	08 95       	ret

0000045c <_ZN11TinyGPSPlus12parseDegreesEPKcR10RawDegrees>:
     45c:	2f 92       	push	r2
     45e:	3f 92       	push	r3
     460:	4f 92       	push	r4
     462:	5f 92       	push	r5
     464:	6f 92       	push	r6
     466:	7f 92       	push	r7
     468:	8f 92       	push	r8
     46a:	9f 92       	push	r9
     46c:	af 92       	push	r10
     46e:	bf 92       	push	r11
     470:	cf 92       	push	r12
     472:	df 92       	push	r13
     474:	ef 92       	push	r14
     476:	ff 92       	push	r15
     478:	0f 93       	push	r16
     47a:	1f 93       	push	r17
     47c:	cf 93       	push	r28
     47e:	df 93       	push	r29
     480:	d8 2f       	mov	r29, r24
     482:	c9 2f       	mov	r28, r25
     484:	8b 01       	movw	r16, r22
     486:	0e 94 42 20 	call	0x4084	; 0x4084 <atol>
     48a:	24 e6       	ldi	r18, 0x64	; 100
     48c:	30 e0       	ldi	r19, 0x00	; 0
     48e:	40 e0       	ldi	r20, 0x00	; 0
     490:	50 e0       	ldi	r21, 0x00	; 0
     492:	0e 94 c5 1f 	call	0x3f8a	; 0x3f8a <__udivmodsi4>
     496:	49 01       	movw	r8, r18
     498:	5a 01       	movw	r10, r20
     49a:	9b 01       	movw	r18, r22
     49c:	ac 01       	movw	r20, r24
     49e:	60 e8       	ldi	r22, 0x80	; 128
     4a0:	76 e9       	ldi	r23, 0x96	; 150
     4a2:	88 e9       	ldi	r24, 0x98	; 152
     4a4:	90 e0       	ldi	r25, 0x00	; 0
     4a6:	0e 94 a1 1f 	call	0x3f42	; 0x3f42 <__mulsi3>
     4aa:	6b 01       	movw	r12, r22
     4ac:	7c 01       	movw	r14, r24
     4ae:	f8 01       	movw	r30, r16
     4b0:	91 82       	std	Z+1, r9	; 0x01
     4b2:	80 82       	st	Z, r8
     4b4:	ed 2f       	mov	r30, r29
     4b6:	fc 2f       	mov	r31, r28
     4b8:	21 91       	ld	r18, Z+
     4ba:	82 2f       	mov	r24, r18
     4bc:	90 e0       	ldi	r25, 0x00	; 0
     4be:	c0 97       	sbiw	r24, 0x30	; 48
     4c0:	0a 97       	sbiw	r24, 0x0a	; 10
     4c2:	d0 f3       	brcs	.-12     	; 0x4b8 <_ZN11TinyGPSPlus12parseDegreesEPKcR10RawDegrees+0x5c>
     4c4:	2e 32       	cpi	r18, 0x2E	; 46
     4c6:	29 f5       	brne	.+74     	; 0x512 <_ZN11TinyGPSPlus12parseDegreesEPKcR10RawDegrees+0xb6>
     4c8:	1f 01       	movw	r2, r30
     4ca:	80 e8       	ldi	r24, 0x80	; 128
     4cc:	88 2e       	mov	r8, r24
     4ce:	86 e9       	ldi	r24, 0x96	; 150
     4d0:	98 2e       	mov	r9, r24
     4d2:	88 e9       	ldi	r24, 0x98	; 152
     4d4:	a8 2e       	mov	r10, r24
     4d6:	b1 2c       	mov	r11, r1
     4d8:	9a e0       	ldi	r25, 0x0A	; 10
     4da:	49 2e       	mov	r4, r25
     4dc:	51 2c       	mov	r5, r1
     4de:	61 2c       	mov	r6, r1
     4e0:	71 2c       	mov	r7, r1
     4e2:	f1 01       	movw	r30, r2
     4e4:	c1 91       	ld	r28, Z+
     4e6:	1f 01       	movw	r2, r30
     4e8:	d0 e0       	ldi	r29, 0x00	; 0
     4ea:	e0 97       	sbiw	r28, 0x30	; 48
     4ec:	ca 30       	cpi	r28, 0x0A	; 10
     4ee:	d1 05       	cpc	r29, r1
     4f0:	80 f4       	brcc	.+32     	; 0x512 <_ZN11TinyGPSPlus12parseDegreesEPKcR10RawDegrees+0xb6>
     4f2:	c5 01       	movw	r24, r10
     4f4:	b4 01       	movw	r22, r8
     4f6:	a3 01       	movw	r20, r6
     4f8:	92 01       	movw	r18, r4
     4fa:	0e 94 c5 1f 	call	0x3f8a	; 0x3f8a <__udivmodsi4>
     4fe:	49 01       	movw	r8, r18
     500:	5a 01       	movw	r10, r20
     502:	de 01       	movw	r26, r28
     504:	0e 94 17 20 	call	0x402e	; 0x402e <__mulshisi3>
     508:	c6 0e       	add	r12, r22
     50a:	d7 1e       	adc	r13, r23
     50c:	e8 1e       	adc	r14, r24
     50e:	f9 1e       	adc	r15, r25
     510:	e8 cf       	rjmp	.-48     	; 0x4e2 <_ZN11TinyGPSPlus12parseDegreesEPKcR10RawDegrees+0x86>
     512:	a5 e0       	ldi	r26, 0x05	; 5
     514:	b0 e0       	ldi	r27, 0x00	; 0
     516:	a7 01       	movw	r20, r14
     518:	96 01       	movw	r18, r12
     51a:	0e 94 0c 20 	call	0x4018	; 0x4018 <__muluhisi3>
     51e:	6f 5f       	subi	r22, 0xFF	; 255
     520:	7f 4f       	sbci	r23, 0xFF	; 255
     522:	8f 4f       	sbci	r24, 0xFF	; 255
     524:	9f 4f       	sbci	r25, 0xFF	; 255
     526:	23 e0       	ldi	r18, 0x03	; 3
     528:	30 e0       	ldi	r19, 0x00	; 0
     52a:	40 e0       	ldi	r20, 0x00	; 0
     52c:	50 e0       	ldi	r21, 0x00	; 0
     52e:	0e 94 c5 1f 	call	0x3f8a	; 0x3f8a <__udivmodsi4>
     532:	f8 01       	movw	r30, r16
     534:	22 83       	std	Z+2, r18	; 0x02
     536:	33 83       	std	Z+3, r19	; 0x03
     538:	44 83       	std	Z+4, r20	; 0x04
     53a:	55 83       	std	Z+5, r21	; 0x05
     53c:	16 82       	std	Z+6, r1	; 0x06
     53e:	df 91       	pop	r29
     540:	cf 91       	pop	r28
     542:	1f 91       	pop	r17
     544:	0f 91       	pop	r16
     546:	ff 90       	pop	r15
     548:	ef 90       	pop	r14
     54a:	df 90       	pop	r13
     54c:	cf 90       	pop	r12
     54e:	bf 90       	pop	r11
     550:	af 90       	pop	r10
     552:	9f 90       	pop	r9
     554:	8f 90       	pop	r8
     556:	7f 90       	pop	r7
     558:	6f 90       	pop	r6
     55a:	5f 90       	pop	r5
     55c:	4f 90       	pop	r4
     55e:	3f 90       	pop	r3
     560:	2f 90       	pop	r2
     562:	08 95       	ret

00000564 <_ZN15TinyGPSLocation6commitEv>:
     564:	cf 93       	push	r28
     566:	df 93       	push	r29
     568:	ec 01       	movw	r28, r24
     56a:	87 e0       	ldi	r24, 0x07	; 7
     56c:	fe 01       	movw	r30, r28
     56e:	70 96       	adiw	r30, 0x10	; 16
     570:	de 01       	movw	r26, r28
     572:	12 96       	adiw	r26, 0x02	; 2
     574:	01 90       	ld	r0, Z+
     576:	0d 92       	st	X+, r0
     578:	8a 95       	dec	r24
     57a:	e1 f7       	brne	.-8      	; 0x574 <_ZN15TinyGPSLocation6commitEv+0x10>
     57c:	87 e0       	ldi	r24, 0x07	; 7
     57e:	fe 01       	movw	r30, r28
     580:	77 96       	adiw	r30, 0x17	; 23
     582:	de 01       	movw	r26, r28
     584:	19 96       	adiw	r26, 0x09	; 9
     586:	01 90       	ld	r0, Z+
     588:	0d 92       	st	X+, r0
     58a:	8a 95       	dec	r24
     58c:	e1 f7       	brne	.-8      	; 0x586 <_ZN15TinyGPSLocation6commitEv+0x22>
     58e:	0e 94 e6 1b 	call	0x37cc	; 0x37cc <millis>
     592:	6e 8f       	std	Y+30, r22	; 0x1e
     594:	7f 8f       	std	Y+31, r23	; 0x1f
     596:	88 a3       	std	Y+32, r24	; 0x20
     598:	99 a3       	std	Y+33, r25	; 0x21
     59a:	81 e0       	ldi	r24, 0x01	; 1
     59c:	89 83       	std	Y+1, r24	; 0x01
     59e:	88 83       	st	Y, r24
     5a0:	df 91       	pop	r29
     5a2:	cf 91       	pop	r28
     5a4:	08 95       	ret

000005a6 <_ZN15TinyGPSLocation3latEv>:
     5a6:	cf 92       	push	r12
     5a8:	df 92       	push	r13
     5aa:	ef 92       	push	r14
     5ac:	ff 92       	push	r15
     5ae:	cf 93       	push	r28
     5b0:	df 93       	push	r29
     5b2:	ec 01       	movw	r28, r24
     5b4:	19 82       	std	Y+1, r1	; 0x01
     5b6:	6a 81       	ldd	r22, Y+2	; 0x02
     5b8:	7b 81       	ldd	r23, Y+3	; 0x03
     5ba:	80 e0       	ldi	r24, 0x00	; 0
     5bc:	90 e0       	ldi	r25, 0x00	; 0
     5be:	0e 94 78 1e 	call	0x3cf0	; 0x3cf0 <__floatunsisf>
     5c2:	6b 01       	movw	r12, r22
     5c4:	7c 01       	movw	r14, r24
     5c6:	6c 81       	ldd	r22, Y+4	; 0x04
     5c8:	7d 81       	ldd	r23, Y+5	; 0x05
     5ca:	8e 81       	ldd	r24, Y+6	; 0x06
     5cc:	9f 81       	ldd	r25, Y+7	; 0x07
     5ce:	0e 94 78 1e 	call	0x3cf0	; 0x3cf0 <__floatunsisf>
     5d2:	28 e2       	ldi	r18, 0x28	; 40
     5d4:	3b e6       	ldi	r19, 0x6B	; 107
     5d6:	4e e6       	ldi	r20, 0x6E	; 110
     5d8:	5e e4       	ldi	r21, 0x4E	; 78
     5da:	0e 94 d0 1d 	call	0x3ba0	; 0x3ba0 <__divsf3>
     5de:	9b 01       	movw	r18, r22
     5e0:	ac 01       	movw	r20, r24
     5e2:	c7 01       	movw	r24, r14
     5e4:	b6 01       	movw	r22, r12
     5e6:	0e 94 5f 1d 	call	0x3abe	; 0x3abe <__addsf3>
     5ea:	28 85       	ldd	r18, Y+8	; 0x08
     5ec:	21 11       	cpse	r18, r1
     5ee:	90 58       	subi	r25, 0x80	; 128
     5f0:	df 91       	pop	r29
     5f2:	cf 91       	pop	r28
     5f4:	ff 90       	pop	r15
     5f6:	ef 90       	pop	r14
     5f8:	df 90       	pop	r13
     5fa:	cf 90       	pop	r12
     5fc:	08 95       	ret

000005fe <_ZN15TinyGPSLocation3lngEv>:
     5fe:	cf 92       	push	r12
     600:	df 92       	push	r13
     602:	ef 92       	push	r14
     604:	ff 92       	push	r15
     606:	cf 93       	push	r28
     608:	df 93       	push	r29
     60a:	ec 01       	movw	r28, r24
     60c:	19 82       	std	Y+1, r1	; 0x01
     60e:	69 85       	ldd	r22, Y+9	; 0x09
     610:	7a 85       	ldd	r23, Y+10	; 0x0a
     612:	80 e0       	ldi	r24, 0x00	; 0
     614:	90 e0       	ldi	r25, 0x00	; 0
     616:	0e 94 78 1e 	call	0x3cf0	; 0x3cf0 <__floatunsisf>
     61a:	6b 01       	movw	r12, r22
     61c:	7c 01       	movw	r14, r24
     61e:	6b 85       	ldd	r22, Y+11	; 0x0b
     620:	7c 85       	ldd	r23, Y+12	; 0x0c
     622:	8d 85       	ldd	r24, Y+13	; 0x0d
     624:	9e 85       	ldd	r25, Y+14	; 0x0e
     626:	0e 94 78 1e 	call	0x3cf0	; 0x3cf0 <__floatunsisf>
     62a:	28 e2       	ldi	r18, 0x28	; 40
     62c:	3b e6       	ldi	r19, 0x6B	; 107
     62e:	4e e6       	ldi	r20, 0x6E	; 110
     630:	5e e4       	ldi	r21, 0x4E	; 78
     632:	0e 94 d0 1d 	call	0x3ba0	; 0x3ba0 <__divsf3>
     636:	9b 01       	movw	r18, r22
     638:	ac 01       	movw	r20, r24
     63a:	c7 01       	movw	r24, r14
     63c:	b6 01       	movw	r22, r12
     63e:	0e 94 5f 1d 	call	0x3abe	; 0x3abe <__addsf3>
     642:	2f 85       	ldd	r18, Y+15	; 0x0f
     644:	21 11       	cpse	r18, r1
     646:	90 58       	subi	r25, 0x80	; 128
     648:	df 91       	pop	r29
     64a:	cf 91       	pop	r28
     64c:	ff 90       	pop	r15
     64e:	ef 90       	pop	r14
     650:	df 90       	pop	r13
     652:	cf 90       	pop	r12
     654:	08 95       	ret

00000656 <_ZN11TinyGPSDate6commitEv>:
     656:	cf 93       	push	r28
     658:	df 93       	push	r29
     65a:	ec 01       	movw	r28, r24
     65c:	8e 81       	ldd	r24, Y+6	; 0x06
     65e:	9f 81       	ldd	r25, Y+7	; 0x07
     660:	a8 85       	ldd	r26, Y+8	; 0x08
     662:	b9 85       	ldd	r27, Y+9	; 0x09
     664:	8a 83       	std	Y+2, r24	; 0x02
     666:	9b 83       	std	Y+3, r25	; 0x03
     668:	ac 83       	std	Y+4, r26	; 0x04
     66a:	bd 83       	std	Y+5, r27	; 0x05
     66c:	0e 94 e6 1b 	call	0x37cc	; 0x37cc <millis>
     670:	6a 87       	std	Y+10, r22	; 0x0a
     672:	7b 87       	std	Y+11, r23	; 0x0b
     674:	8c 87       	std	Y+12, r24	; 0x0c
     676:	9d 87       	std	Y+13, r25	; 0x0d
     678:	81 e0       	ldi	r24, 0x01	; 1
     67a:	89 83       	std	Y+1, r24	; 0x01
     67c:	88 83       	st	Y, r24
     67e:	df 91       	pop	r29
     680:	cf 91       	pop	r28
     682:	08 95       	ret

00000684 <_ZN11TinyGPSTime6commitEv>:
     684:	cf 93       	push	r28
     686:	df 93       	push	r29
     688:	ec 01       	movw	r28, r24
     68a:	8e 81       	ldd	r24, Y+6	; 0x06
     68c:	9f 81       	ldd	r25, Y+7	; 0x07
     68e:	a8 85       	ldd	r26, Y+8	; 0x08
     690:	b9 85       	ldd	r27, Y+9	; 0x09
     692:	8a 83       	std	Y+2, r24	; 0x02
     694:	9b 83       	std	Y+3, r25	; 0x03
     696:	ac 83       	std	Y+4, r26	; 0x04
     698:	bd 83       	std	Y+5, r27	; 0x05
     69a:	0e 94 e6 1b 	call	0x37cc	; 0x37cc <millis>
     69e:	6a 87       	std	Y+10, r22	; 0x0a
     6a0:	7b 87       	std	Y+11, r23	; 0x0b
     6a2:	8c 87       	std	Y+12, r24	; 0x0c
     6a4:	9d 87       	std	Y+13, r25	; 0x0d
     6a6:	81 e0       	ldi	r24, 0x01	; 1
     6a8:	89 83       	std	Y+1, r24	; 0x01
     6aa:	88 83       	st	Y, r24
     6ac:	df 91       	pop	r29
     6ae:	cf 91       	pop	r28
     6b0:	08 95       	ret

000006b2 <_ZN11TinyGPSTime7setTimeEPKc>:
     6b2:	cf 93       	push	r28
     6b4:	df 93       	push	r29
     6b6:	ec 01       	movw	r28, r24
     6b8:	cb 01       	movw	r24, r22
     6ba:	0e 94 d9 01 	call	0x3b2	; 0x3b2 <_ZN11TinyGPSPlus12parseDecimalEPKc>
     6be:	6e 83       	std	Y+6, r22	; 0x06
     6c0:	7f 83       	std	Y+7, r23	; 0x07
     6c2:	88 87       	std	Y+8, r24	; 0x08
     6c4:	99 87       	std	Y+9, r25	; 0x09
     6c6:	df 91       	pop	r29
     6c8:	cf 91       	pop	r28
     6ca:	08 95       	ret

000006cc <_ZN11TinyGPSDate7setDateEPKc>:
     6cc:	cf 93       	push	r28
     6ce:	df 93       	push	r29
     6d0:	ec 01       	movw	r28, r24
     6d2:	cb 01       	movw	r24, r22
     6d4:	0e 94 42 20 	call	0x4084	; 0x4084 <atol>
     6d8:	6e 83       	std	Y+6, r22	; 0x06
     6da:	7f 83       	std	Y+7, r23	; 0x07
     6dc:	88 87       	std	Y+8, r24	; 0x08
     6de:	99 87       	std	Y+9, r25	; 0x09
     6e0:	df 91       	pop	r29
     6e2:	cf 91       	pop	r28
     6e4:	08 95       	ret

000006e6 <_ZN14TinyGPSDecimal6commitEv>:
     6e6:	cf 93       	push	r28
     6e8:	df 93       	push	r29
     6ea:	ec 01       	movw	r28, r24
     6ec:	8a 85       	ldd	r24, Y+10	; 0x0a
     6ee:	9b 85       	ldd	r25, Y+11	; 0x0b
     6f0:	ac 85       	ldd	r26, Y+12	; 0x0c
     6f2:	bd 85       	ldd	r27, Y+13	; 0x0d
     6f4:	8e 83       	std	Y+6, r24	; 0x06
     6f6:	9f 83       	std	Y+7, r25	; 0x07
     6f8:	a8 87       	std	Y+8, r26	; 0x08
     6fa:	b9 87       	std	Y+9, r27	; 0x09
     6fc:	0e 94 e6 1b 	call	0x37cc	; 0x37cc <millis>
     700:	6a 83       	std	Y+2, r22	; 0x02
     702:	7b 83       	std	Y+3, r23	; 0x03
     704:	8c 83       	std	Y+4, r24	; 0x04
     706:	9d 83       	std	Y+5, r25	; 0x05
     708:	81 e0       	ldi	r24, 0x01	; 1
     70a:	89 83       	std	Y+1, r24	; 0x01
     70c:	88 83       	st	Y, r24
     70e:	df 91       	pop	r29
     710:	cf 91       	pop	r28
     712:	08 95       	ret

00000714 <_ZN14TinyGPSDecimal3setEPKc>:
     714:	cf 93       	push	r28
     716:	df 93       	push	r29
     718:	ec 01       	movw	r28, r24
     71a:	cb 01       	movw	r24, r22
     71c:	0e 94 d9 01 	call	0x3b2	; 0x3b2 <_ZN11TinyGPSPlus12parseDecimalEPKc>
     720:	6a 87       	std	Y+10, r22	; 0x0a
     722:	7b 87       	std	Y+11, r23	; 0x0b
     724:	8c 87       	std	Y+12, r24	; 0x0c
     726:	9d 87       	std	Y+13, r25	; 0x0d
     728:	df 91       	pop	r29
     72a:	cf 91       	pop	r28
     72c:	08 95       	ret

0000072e <_ZN14TinyGPSInteger6commitEv>:
     72e:	cf 93       	push	r28
     730:	df 93       	push	r29
     732:	ec 01       	movw	r28, r24
     734:	8a 85       	ldd	r24, Y+10	; 0x0a
     736:	9b 85       	ldd	r25, Y+11	; 0x0b
     738:	ac 85       	ldd	r26, Y+12	; 0x0c
     73a:	bd 85       	ldd	r27, Y+13	; 0x0d
     73c:	8e 83       	std	Y+6, r24	; 0x06
     73e:	9f 83       	std	Y+7, r25	; 0x07
     740:	a8 87       	std	Y+8, r26	; 0x08
     742:	b9 87       	std	Y+9, r27	; 0x09
     744:	0e 94 e6 1b 	call	0x37cc	; 0x37cc <millis>
     748:	6a 83       	std	Y+2, r22	; 0x02
     74a:	7b 83       	std	Y+3, r23	; 0x03
     74c:	8c 83       	std	Y+4, r24	; 0x04
     74e:	9d 83       	std	Y+5, r25	; 0x05
     750:	81 e0       	ldi	r24, 0x01	; 1
     752:	89 83       	std	Y+1, r24	; 0x01
     754:	88 83       	st	Y, r24
     756:	df 91       	pop	r29
     758:	cf 91       	pop	r28
     75a:	08 95       	ret

0000075c <_ZN14TinyGPSInteger3setEPKc>:
     75c:	cf 93       	push	r28
     75e:	df 93       	push	r29
     760:	ec 01       	movw	r28, r24
     762:	cb 01       	movw	r24, r22
     764:	0e 94 42 20 	call	0x4084	; 0x4084 <atol>
     768:	6a 87       	std	Y+10, r22	; 0x0a
     76a:	7b 87       	std	Y+11, r23	; 0x0b
     76c:	8c 87       	std	Y+12, r24	; 0x0c
     76e:	9d 87       	std	Y+13, r25	; 0x0d
     770:	df 91       	pop	r29
     772:	cf 91       	pop	r28
     774:	08 95       	ret

00000776 <_ZN13TinyGPSCustom6commitEv>:
     776:	cf 93       	push	r28
     778:	df 93       	push	r29
     77a:	ec 01       	movw	r28, r24
     77c:	bc 01       	movw	r22, r24
     77e:	40 96       	adiw	r24, 0x10	; 16
     780:	0e 94 72 20 	call	0x40e4	; 0x40e4 <strcpy>
     784:	0e 94 e6 1b 	call	0x37cc	; 0x37cc <millis>
     788:	68 a3       	std	Y+32, r22	; 0x20
     78a:	79 a3       	std	Y+33, r23	; 0x21
     78c:	8a a3       	std	Y+34, r24	; 0x22
     78e:	9b a3       	std	Y+35, r25	; 0x23
     790:	81 e0       	ldi	r24, 0x01	; 1
     792:	8d a3       	std	Y+37, r24	; 0x25
     794:	8c a3       	std	Y+36, r24	; 0x24
     796:	df 91       	pop	r29
     798:	cf 91       	pop	r28
     79a:	08 95       	ret

0000079c <_ZN13TinyGPSCustom3setEPKc>:
     79c:	40 e1       	ldi	r20, 0x10	; 16
     79e:	50 e0       	ldi	r21, 0x00	; 0
     7a0:	0c 94 79 20 	jmp	0x40f2	; 0x40f2 <strncpy>

000007a4 <_ZN11TinyGPSPlus16endOfTermHandlerEv>:
     7a4:	bf 92       	push	r11
     7a6:	cf 92       	push	r12
     7a8:	df 92       	push	r13
     7aa:	ef 92       	push	r14
     7ac:	ff 92       	push	r15
     7ae:	0f 93       	push	r16
     7b0:	1f 93       	push	r17
     7b2:	cf 93       	push	r28
     7b4:	df 93       	push	r29
     7b6:	ec 01       	movw	r28, r24
     7b8:	fc 01       	movw	r30, r24
     7ba:	eb 57       	subi	r30, 0x7B	; 123
     7bc:	ff 4f       	sbci	r31, 0xFF	; 255
     7be:	b0 80       	ld	r11, Z
     7c0:	bb 20       	and	r11, r11
     7c2:	09 f4       	brne	.+2      	; 0x7c6 <_ZN11TinyGPSPlus16endOfTermHandlerEv+0x22>
     7c4:	99 c0       	rjmp	.+306    	; 0x8f8 <_ZN11TinyGPSPlus16endOfTermHandlerEv+0x154>
     7c6:	31 96       	adiw	r30, 0x01	; 1
     7c8:	60 81       	ld	r22, Z
     7ca:	0e 94 c9 01 	call	0x392	; 0x392 <_ZN11TinyGPSPlus7fromHexEc>
     7ce:	18 2f       	mov	r17, r24
     7d0:	fe 01       	movw	r30, r28
     7d2:	e9 57       	subi	r30, 0x79	; 121
     7d4:	ff 4f       	sbci	r31, 0xFF	; 255
     7d6:	60 81       	ld	r22, Z
     7d8:	ce 01       	movw	r24, r28
     7da:	0e 94 c9 01 	call	0x392	; 0x392 <_ZN11TinyGPSPlus7fromHexEc>
     7de:	40 e1       	ldi	r20, 0x10	; 16
     7e0:	14 9f       	mul	r17, r20
     7e2:	80 0d       	add	r24, r0
     7e4:	11 24       	eor	r1, r1
     7e6:	fe 01       	movw	r30, r28
     7e8:	ec 57       	subi	r30, 0x7C	; 124
     7ea:	ff 4f       	sbci	r31, 0xFF	; 255
     7ec:	90 81       	ld	r25, Z
     7ee:	89 13       	cpse	r24, r25
     7f0:	74 c0       	rjmp	.+232    	; 0x8da <_ZN11TinyGPSPlus16endOfTermHandlerEv+0x136>
     7f2:	b5 96       	adiw	r30, 0x25	; 37
     7f4:	80 81       	ld	r24, Z
     7f6:	91 81       	ldd	r25, Z+1	; 0x01
     7f8:	a2 81       	ldd	r26, Z+2	; 0x02
     7fa:	b3 81       	ldd	r27, Z+3	; 0x03
     7fc:	01 96       	adiw	r24, 0x01	; 1
     7fe:	a1 1d       	adc	r26, r1
     800:	b1 1d       	adc	r27, r1
     802:	80 83       	st	Z, r24
     804:	91 83       	std	Z+1, r25	; 0x01
     806:	a2 83       	std	Z+2, r26	; 0x02
     808:	b3 83       	std	Z+3, r27	; 0x03
     80a:	8e 01       	movw	r16, r28
     80c:	08 56       	subi	r16, 0x68	; 104
     80e:	1f 4f       	sbci	r17, 0xFF	; 255
     810:	d8 01       	movw	r26, r16
     812:	8c 91       	ld	r24, X
     814:	88 23       	and	r24, r24
     816:	61 f0       	breq	.+24     	; 0x830 <_ZN11TinyGPSPlus16endOfTermHandlerEv+0x8c>
     818:	38 97       	sbiw	r30, 0x08	; 8
     81a:	80 81       	ld	r24, Z
     81c:	91 81       	ldd	r25, Z+1	; 0x01
     81e:	a2 81       	ldd	r26, Z+2	; 0x02
     820:	b3 81       	ldd	r27, Z+3	; 0x03
     822:	01 96       	adiw	r24, 0x01	; 1
     824:	a1 1d       	adc	r26, r1
     826:	b1 1d       	adc	r27, r1
     828:	80 83       	st	Z, r24
     82a:	91 83       	std	Z+1, r25	; 0x01
     82c:	a2 83       	std	Z+2, r26	; 0x02
     82e:	b3 83       	std	Z+3, r27	; 0x03
     830:	fe 01       	movw	r30, r28
     832:	eb 56       	subi	r30, 0x6B	; 107
     834:	ff 4f       	sbci	r31, 0xFF	; 255
     836:	80 81       	ld	r24, Z
     838:	88 23       	and	r24, r24
     83a:	c9 f0       	breq	.+50     	; 0x86e <_ZN11TinyGPSPlus16endOfTermHandlerEv+0xca>
     83c:	81 30       	cpi	r24, 0x01	; 1
     83e:	89 f5       	brne	.+98     	; 0x8a2 <_ZN11TinyGPSPlus16endOfTermHandlerEv+0xfe>
     840:	ce 01       	movw	r24, r28
     842:	82 96       	adiw	r24, 0x22	; 34
     844:	0e 94 2b 03 	call	0x656	; 0x656 <_ZN11TinyGPSDate6commitEv>
     848:	ce 01       	movw	r24, r28
     84a:	c0 96       	adiw	r24, 0x30	; 48
     84c:	0e 94 42 03 	call	0x684	; 0x684 <_ZN11TinyGPSTime6commitEv>
     850:	f8 01       	movw	r30, r16
     852:	80 81       	ld	r24, Z
     854:	88 23       	and	r24, r24
     856:	29 f1       	breq	.+74     	; 0x8a2 <_ZN11TinyGPSPlus16endOfTermHandlerEv+0xfe>
     858:	ce 01       	movw	r24, r28
     85a:	0e 94 b2 02 	call	0x564	; 0x564 <_ZN15TinyGPSLocation6commitEv>
     85e:	ce 01       	movw	r24, r28
     860:	ce 96       	adiw	r24, 0x3e	; 62
     862:	0e 94 73 03 	call	0x6e6	; 0x6e6 <_ZN14TinyGPSDecimal6commitEv>
     866:	ce 01       	movw	r24, r28
     868:	84 5b       	subi	r24, 0xB4	; 180
     86a:	9f 4f       	sbci	r25, 0xFF	; 255
     86c:	18 c0       	rjmp	.+48     	; 0x89e <_ZN11TinyGPSPlus16endOfTermHandlerEv+0xfa>
     86e:	ce 01       	movw	r24, r28
     870:	c0 96       	adiw	r24, 0x30	; 48
     872:	0e 94 42 03 	call	0x684	; 0x684 <_ZN11TinyGPSTime6commitEv>
     876:	d8 01       	movw	r26, r16
     878:	8c 91       	ld	r24, X
     87a:	88 23       	and	r24, r24
     87c:	41 f0       	breq	.+16     	; 0x88e <_ZN11TinyGPSPlus16endOfTermHandlerEv+0xea>
     87e:	ce 01       	movw	r24, r28
     880:	0e 94 b2 02 	call	0x564	; 0x564 <_ZN15TinyGPSLocation6commitEv>
     884:	ce 01       	movw	r24, r28
     886:	86 5a       	subi	r24, 0xA6	; 166
     888:	9f 4f       	sbci	r25, 0xFF	; 255
     88a:	0e 94 73 03 	call	0x6e6	; 0x6e6 <_ZN14TinyGPSDecimal6commitEv>
     88e:	ce 01       	movw	r24, r28
     890:	88 59       	subi	r24, 0x98	; 152
     892:	9f 4f       	sbci	r25, 0xFF	; 255
     894:	0e 94 97 03 	call	0x72e	; 0x72e <_ZN14TinyGPSInteger6commitEv>
     898:	ce 01       	movw	r24, r28
     89a:	8a 58       	subi	r24, 0x8A	; 138
     89c:	9f 4f       	sbci	r25, 0xFF	; 255
     89e:	0e 94 73 03 	call	0x6e6	; 0x6e6 <_ZN14TinyGPSDecimal6commitEv>
     8a2:	8e 01       	movw	r16, r28
     8a4:	05 56       	subi	r16, 0x65	; 101
     8a6:	1f 4f       	sbci	r17, 0xFF	; 255
     8a8:	f8 01       	movw	r30, r16
     8aa:	c0 81       	ld	r28, Z
     8ac:	d1 81       	ldd	r29, Z+1	; 0x01
     8ae:	20 97       	sbiw	r28, 0x00	; 0
     8b0:	09 f4       	brne	.+2      	; 0x8b4 <_ZN11TinyGPSPlus16endOfTermHandlerEv+0x110>
     8b2:	03 c1       	rjmp	.+518    	; 0xaba <__stack+0x1bb>
     8b4:	d8 01       	movw	r26, r16
     8b6:	ed 91       	ld	r30, X+
     8b8:	fc 91       	ld	r31, X
     8ba:	66 a1       	ldd	r22, Z+38	; 0x26
     8bc:	77 a1       	ldd	r23, Z+39	; 0x27
     8be:	8e a1       	ldd	r24, Y+38	; 0x26
     8c0:	9f a1       	ldd	r25, Y+39	; 0x27
     8c2:	0e 94 69 20 	call	0x40d2	; 0x40d2 <strcmp>
     8c6:	89 2b       	or	r24, r25
     8c8:	09 f0       	breq	.+2      	; 0x8cc <_ZN11TinyGPSPlus16endOfTermHandlerEv+0x128>
     8ca:	f7 c0       	rjmp	.+494    	; 0xaba <__stack+0x1bb>
     8cc:	ce 01       	movw	r24, r28
     8ce:	0e 94 bb 03 	call	0x776	; 0x776 <_ZN13TinyGPSCustom6commitEv>
     8d2:	0a a4       	ldd	r0, Y+42	; 0x2a
     8d4:	db a5       	ldd	r29, Y+43	; 0x2b
     8d6:	c0 2d       	mov	r28, r0
     8d8:	ea cf       	rjmp	.-44     	; 0x8ae <_ZN11TinyGPSPlus16endOfTermHandlerEv+0x10a>
     8da:	cb 55       	subi	r28, 0x5B	; 91
     8dc:	df 4f       	sbci	r29, 0xFF	; 255
     8de:	88 81       	ld	r24, Y
     8e0:	99 81       	ldd	r25, Y+1	; 0x01
     8e2:	aa 81       	ldd	r26, Y+2	; 0x02
     8e4:	bb 81       	ldd	r27, Y+3	; 0x03
     8e6:	01 96       	adiw	r24, 0x01	; 1
     8e8:	a1 1d       	adc	r26, r1
     8ea:	b1 1d       	adc	r27, r1
     8ec:	88 83       	st	Y, r24
     8ee:	99 83       	std	Y+1, r25	; 0x01
     8f0:	aa 83       	std	Y+2, r26	; 0x02
     8f2:	bb 83       	std	Y+3, r27	; 0x03
     8f4:	b1 2c       	mov	r11, r1
     8f6:	e1 c0       	rjmp	.+450    	; 0xaba <__stack+0x1bb>
     8f8:	7c 01       	movw	r14, r24
     8fa:	b6 e9       	ldi	r27, 0x96	; 150
     8fc:	eb 0e       	add	r14, r27
     8fe:	f1 1c       	adc	r15, r1
     900:	f7 01       	movw	r30, r14
     902:	30 81       	ld	r19, Z
     904:	8b 56       	subi	r24, 0x6B	; 107
     906:	9f 4f       	sbci	r25, 0xFF	; 255
     908:	6c 01       	movw	r12, r24
     90a:	8e 01       	movw	r16, r28
     90c:	05 56       	subi	r16, 0x65	; 101
     90e:	1f 4f       	sbci	r17, 0xFF	; 255
     910:	31 11       	cpse	r19, r1
     912:	35 c0       	rjmp	.+106    	; 0x97e <__stack+0x7f>
     914:	7e 01       	movw	r14, r28
     916:	96 e8       	ldi	r25, 0x86	; 134
     918:	e9 0e       	add	r14, r25
     91a:	f1 1c       	adc	r15, r1
     91c:	63 e0       	ldi	r22, 0x03	; 3
     91e:	74 e0       	ldi	r23, 0x04	; 4
     920:	c7 01       	movw	r24, r14
     922:	0e 94 69 20 	call	0x40d2	; 0x40d2 <strcmp>
     926:	89 2b       	or	r24, r25
     928:	11 f4       	brne	.+4      	; 0x92e <__stack+0x2f>
     92a:	81 e0       	ldi	r24, 0x01	; 1
     92c:	0b c0       	rjmp	.+22     	; 0x944 <__stack+0x45>
     92e:	69 e0       	ldi	r22, 0x09	; 9
     930:	74 e0       	ldi	r23, 0x04	; 4
     932:	c7 01       	movw	r24, r14
     934:	0e 94 69 20 	call	0x40d2	; 0x40d2 <strcmp>
     938:	89 2b       	or	r24, r25
     93a:	19 f4       	brne	.+6      	; 0x942 <__stack+0x43>
     93c:	f6 01       	movw	r30, r12
     93e:	10 82       	st	Z, r1
     940:	03 c0       	rjmp	.+6      	; 0x948 <__stack+0x49>
     942:	82 e0       	ldi	r24, 0x02	; 2
     944:	d6 01       	movw	r26, r12
     946:	8c 93       	st	X, r24
     948:	c7 56       	subi	r28, 0x67	; 103
     94a:	df 4f       	sbci	r29, 0xFF	; 255
     94c:	88 81       	ld	r24, Y
     94e:	99 81       	ldd	r25, Y+1	; 0x01
     950:	f8 01       	movw	r30, r16
     952:	91 83       	std	Z+1, r25	; 0x01
     954:	80 83       	st	Z, r24
     956:	f8 01       	movw	r30, r16
     958:	c0 81       	ld	r28, Z
     95a:	d1 81       	ldd	r29, Z+1	; 0x01
     95c:	20 97       	sbiw	r28, 0x00	; 0
     95e:	09 f4       	brne	.+2      	; 0x962 <__stack+0x63>
     960:	ac c0       	rjmp	.+344    	; 0xaba <__stack+0x1bb>
     962:	ce a0       	ldd	r12, Y+38	; 0x26
     964:	df a0       	ldd	r13, Y+39	; 0x27
     966:	b7 01       	movw	r22, r14
     968:	c6 01       	movw	r24, r12
     96a:	0e 94 69 20 	call	0x40d2	; 0x40d2 <strcmp>
     96e:	97 ff       	sbrs	r25, 7
     970:	9a c0       	rjmp	.+308    	; 0xaa6 <__stack+0x1a7>
     972:	8a a5       	ldd	r24, Y+42	; 0x2a
     974:	9b a5       	ldd	r25, Y+43	; 0x2b
     976:	d8 01       	movw	r26, r16
     978:	8d 93       	st	X+, r24
     97a:	9c 93       	st	X, r25
     97c:	ec cf       	rjmp	.-40     	; 0x956 <__stack+0x57>
     97e:	dc 01       	movw	r26, r24
     980:	ec 91       	ld	r30, X
     982:	e2 30       	cpi	r30, 0x02	; 2
     984:	09 f4       	brne	.+2      	; 0x988 <__stack+0x89>
     986:	63 c0       	rjmp	.+198    	; 0xa4e <__stack+0x14f>
     988:	ce 01       	movw	r24, r28
     98a:	8a 57       	subi	r24, 0x7A	; 122
     98c:	9f 4f       	sbci	r25, 0xFF	; 255
     98e:	dc 01       	movw	r26, r24
     990:	2c 91       	ld	r18, X
     992:	22 23       	and	r18, r18
     994:	09 f4       	brne	.+2      	; 0x998 <__stack+0x99>
     996:	5b c0       	rjmp	.+182    	; 0xa4e <__stack+0x14f>
     998:	b0 e2       	ldi	r27, 0x20	; 32
     99a:	eb 9f       	mul	r30, r27
     99c:	f0 01       	movw	r30, r0
     99e:	11 24       	eor	r1, r1
     9a0:	e3 2b       	or	r30, r19
     9a2:	31 97       	sbiw	r30, 0x01	; 1
     9a4:	e9 32       	cpi	r30, 0x29	; 41
     9a6:	f1 05       	cpc	r31, r1
     9a8:	08 f0       	brcs	.+2      	; 0x9ac <__stack+0xad>
     9aa:	51 c0       	rjmp	.+162    	; 0xa4e <__stack+0x14f>
     9ac:	ec 5c       	subi	r30, 0xCC	; 204
     9ae:	ff 4f       	sbci	r31, 0xFF	; 255
     9b0:	0c 94 06 20 	jmp	0x400c	; 0x400c <__tablejump2__>
     9b4:	bc 01       	movw	r22, r24
     9b6:	ce 01       	movw	r24, r28
     9b8:	c0 96       	adiw	r24, 0x30	; 48
     9ba:	0e 94 59 03 	call	0x6b2	; 0x6b2 <_ZN11TinyGPSTime7setTimeEPKc>
     9be:	47 c0       	rjmp	.+142    	; 0xa4e <__stack+0x14f>
     9c0:	fe 01       	movw	r30, r28
     9c2:	e8 56       	subi	r30, 0x68	; 104
     9c4:	ff 4f       	sbci	r31, 0xFF	; 255
     9c6:	81 e0       	ldi	r24, 0x01	; 1
     9c8:	21 34       	cpi	r18, 0x41	; 65
     9ca:	61 f5       	brne	.+88     	; 0xa24 <__stack+0x125>
     9cc:	2c c0       	rjmp	.+88     	; 0xa26 <__stack+0x127>
     9ce:	be 01       	movw	r22, r28
     9d0:	60 5f       	subi	r22, 0xF0	; 240
     9d2:	7f 4f       	sbci	r23, 0xFF	; 255
     9d4:	09 c0       	rjmp	.+18     	; 0x9e8 <__stack+0xe9>
     9d6:	81 e0       	ldi	r24, 0x01	; 1
     9d8:	23 35       	cpi	r18, 0x53	; 83
     9da:	09 f0       	breq	.+2      	; 0x9de <__stack+0xdf>
     9dc:	80 e0       	ldi	r24, 0x00	; 0
     9de:	8e 8b       	std	Y+22, r24	; 0x16
     9e0:	36 c0       	rjmp	.+108    	; 0xa4e <__stack+0x14f>
     9e2:	be 01       	movw	r22, r28
     9e4:	69 5e       	subi	r22, 0xE9	; 233
     9e6:	7f 4f       	sbci	r23, 0xFF	; 255
     9e8:	0e 94 2e 02 	call	0x45c	; 0x45c <_ZN11TinyGPSPlus12parseDegreesEPKcR10RawDegrees>
     9ec:	30 c0       	rjmp	.+96     	; 0xa4e <__stack+0x14f>
     9ee:	81 e0       	ldi	r24, 0x01	; 1
     9f0:	27 35       	cpi	r18, 0x57	; 87
     9f2:	09 f0       	breq	.+2      	; 0x9f6 <__stack+0xf7>
     9f4:	80 e0       	ldi	r24, 0x00	; 0
     9f6:	8d 8f       	std	Y+29, r24	; 0x1d
     9f8:	2a c0       	rjmp	.+84     	; 0xa4e <__stack+0x14f>
     9fa:	bc 01       	movw	r22, r24
     9fc:	ce 01       	movw	r24, r28
     9fe:	ce 96       	adiw	r24, 0x3e	; 62
     a00:	24 c0       	rjmp	.+72     	; 0xa4a <__stack+0x14b>
     a02:	bc 01       	movw	r22, r24
     a04:	ce 01       	movw	r24, r28
     a06:	84 5b       	subi	r24, 0xB4	; 180
     a08:	9f 4f       	sbci	r25, 0xFF	; 255
     a0a:	1f c0       	rjmp	.+62     	; 0xa4a <__stack+0x14b>
     a0c:	bc 01       	movw	r22, r24
     a0e:	ce 01       	movw	r24, r28
     a10:	82 96       	adiw	r24, 0x22	; 34
     a12:	0e 94 66 03 	call	0x6cc	; 0x6cc <_ZN11TinyGPSDate7setDateEPKc>
     a16:	1b c0       	rjmp	.+54     	; 0xa4e <__stack+0x14f>
     a18:	fe 01       	movw	r30, r28
     a1a:	e8 56       	subi	r30, 0x68	; 104
     a1c:	ff 4f       	sbci	r31, 0xFF	; 255
     a1e:	81 e0       	ldi	r24, 0x01	; 1
     a20:	21 33       	cpi	r18, 0x31	; 49
     a22:	08 f4       	brcc	.+2      	; 0xa26 <__stack+0x127>
     a24:	80 e0       	ldi	r24, 0x00	; 0
     a26:	80 83       	st	Z, r24
     a28:	12 c0       	rjmp	.+36     	; 0xa4e <__stack+0x14f>
     a2a:	bc 01       	movw	r22, r24
     a2c:	ce 01       	movw	r24, r28
     a2e:	88 59       	subi	r24, 0x98	; 152
     a30:	9f 4f       	sbci	r25, 0xFF	; 255
     a32:	0e 94 ae 03 	call	0x75c	; 0x75c <_ZN14TinyGPSInteger3setEPKc>
     a36:	0b c0       	rjmp	.+22     	; 0xa4e <__stack+0x14f>
     a38:	bc 01       	movw	r22, r24
     a3a:	ce 01       	movw	r24, r28
     a3c:	8a 58       	subi	r24, 0x8A	; 138
     a3e:	9f 4f       	sbci	r25, 0xFF	; 255
     a40:	04 c0       	rjmp	.+8      	; 0xa4a <__stack+0x14b>
     a42:	bc 01       	movw	r22, r24
     a44:	ce 01       	movw	r24, r28
     a46:	86 5a       	subi	r24, 0xA6	; 166
     a48:	9f 4f       	sbci	r25, 0xFF	; 255
     a4a:	0e 94 8a 03 	call	0x714	; 0x714 <_ZN14TinyGPSDecimal3setEPKc>
     a4e:	f8 01       	movw	r30, r16
     a50:	c0 80       	ld	r12, Z
     a52:	d1 80       	ldd	r13, Z+1	; 0x01
     a54:	ca 57       	subi	r28, 0x7A	; 122
     a56:	df 4f       	sbci	r29, 0xFF	; 255
     a58:	c1 14       	cp	r12, r1
     a5a:	d1 04       	cpc	r13, r1
     a5c:	71 f1       	breq	.+92     	; 0xaba <__stack+0x1bb>
     a5e:	d8 01       	movw	r26, r16
     a60:	ed 91       	ld	r30, X+
     a62:	fc 91       	ld	r31, X
     a64:	66 a1       	ldd	r22, Z+38	; 0x26
     a66:	77 a1       	ldd	r23, Z+39	; 0x27
     a68:	f6 01       	movw	r30, r12
     a6a:	86 a1       	ldd	r24, Z+38	; 0x26
     a6c:	97 a1       	ldd	r25, Z+39	; 0x27
     a6e:	0e 94 69 20 	call	0x40d2	; 0x40d2 <strcmp>
     a72:	89 2b       	or	r24, r25
     a74:	11 f5       	brne	.+68     	; 0xaba <__stack+0x1bb>
     a76:	d6 01       	movw	r26, r12
     a78:	98 96       	adiw	r26, 0x28	; 40
     a7a:	2d 91       	ld	r18, X+
     a7c:	3c 91       	ld	r19, X
     a7e:	99 97       	sbiw	r26, 0x29	; 41
     a80:	f7 01       	movw	r30, r14
     a82:	80 81       	ld	r24, Z
     a84:	90 e0       	ldi	r25, 0x00	; 0
     a86:	82 17       	cp	r24, r18
     a88:	93 07       	cpc	r25, r19
     a8a:	bc f0       	brlt	.+46     	; 0xaba <__stack+0x1bb>
     a8c:	28 17       	cp	r18, r24
     a8e:	39 07       	cpc	r19, r25
     a90:	21 f4       	brne	.+8      	; 0xa9a <__stack+0x19b>
     a92:	be 01       	movw	r22, r28
     a94:	c6 01       	movw	r24, r12
     a96:	0e 94 ce 03 	call	0x79c	; 0x79c <_ZN13TinyGPSCustom3setEPKc>
     a9a:	d6 01       	movw	r26, r12
     a9c:	9a 96       	adiw	r26, 0x2a	; 42
     a9e:	cd 90       	ld	r12, X+
     aa0:	dc 90       	ld	r13, X
     aa2:	9b 97       	sbiw	r26, 0x2b	; 43
     aa4:	d9 cf       	rjmp	.-78     	; 0xa58 <__stack+0x159>
     aa6:	b7 01       	movw	r22, r14
     aa8:	c6 01       	movw	r24, r12
     aaa:	0e 94 69 20 	call	0x40d2	; 0x40d2 <strcmp>
     aae:	18 16       	cp	r1, r24
     ab0:	19 06       	cpc	r1, r25
     ab2:	1c f4       	brge	.+6      	; 0xaba <__stack+0x1bb>
     ab4:	d8 01       	movw	r26, r16
     ab6:	1d 92       	st	X+, r1
     ab8:	1c 92       	st	X, r1
     aba:	8b 2d       	mov	r24, r11
     abc:	df 91       	pop	r29
     abe:	cf 91       	pop	r28
     ac0:	1f 91       	pop	r17
     ac2:	0f 91       	pop	r16
     ac4:	ff 90       	pop	r15
     ac6:	ef 90       	pop	r14
     ac8:	df 90       	pop	r13
     aca:	cf 90       	pop	r12
     acc:	bf 90       	pop	r11
     ace:	08 95       	ret

00000ad0 <_ZN11TinyGPSPlus6encodeEc>:
     ad0:	df 92       	push	r13
     ad2:	ef 92       	push	r14
     ad4:	ff 92       	push	r15
     ad6:	0f 93       	push	r16
     ad8:	1f 93       	push	r17
     ada:	cf 93       	push	r28
     adc:	df 93       	push	r29
     ade:	9c 01       	movw	r18, r24
     ae0:	fc 01       	movw	r30, r24
     ae2:	e3 56       	subi	r30, 0x63	; 99
     ae4:	ff 4f       	sbci	r31, 0xFF	; 255
     ae6:	80 81       	ld	r24, Z
     ae8:	91 81       	ldd	r25, Z+1	; 0x01
     aea:	a2 81       	ldd	r26, Z+2	; 0x02
     aec:	b3 81       	ldd	r27, Z+3	; 0x03
     aee:	01 96       	adiw	r24, 0x01	; 1
     af0:	a1 1d       	adc	r26, r1
     af2:	b1 1d       	adc	r27, r1
     af4:	80 83       	st	Z, r24
     af6:	91 83       	std	Z+1, r25	; 0x01
     af8:	a2 83       	std	Z+2, r26	; 0x02
     afa:	b3 83       	std	Z+3, r27	; 0x03
     afc:	89 01       	movw	r16, r18
     afe:	09 56       	subi	r16, 0x69	; 105
     b00:	1f 4f       	sbci	r17, 0xFF	; 255
     b02:	c9 01       	movw	r24, r18
     b04:	8b 57       	subi	r24, 0x7B	; 123
     b06:	9f 4f       	sbci	r25, 0xFF	; 255
     b08:	7c 01       	movw	r14, r24
     b0a:	64 32       	cpi	r22, 0x24	; 36
     b0c:	79 f1       	breq	.+94     	; 0xb6c <_ZN11TinyGPSPlus6encodeEc+0x9c>
     b0e:	28 f4       	brcc	.+10     	; 0xb1a <_ZN11TinyGPSPlus6encodeEc+0x4a>
     b10:	6a 30       	cpi	r22, 0x0A	; 10
     b12:	69 f0       	breq	.+26     	; 0xb2e <_ZN11TinyGPSPlus6encodeEc+0x5e>
     b14:	6d 30       	cpi	r22, 0x0D	; 13
     b16:	e1 f5       	brne	.+120    	; 0xb90 <_ZN11TinyGPSPlus6encodeEc+0xc0>
     b18:	0a c0       	rjmp	.+20     	; 0xb2e <_ZN11TinyGPSPlus6encodeEc+0x5e>
     b1a:	6a 32       	cpi	r22, 0x2A	; 42
     b1c:	41 f0       	breq	.+16     	; 0xb2e <_ZN11TinyGPSPlus6encodeEc+0x5e>
     b1e:	6c 32       	cpi	r22, 0x2C	; 44
     b20:	b9 f5       	brne	.+110    	; 0xb90 <_ZN11TinyGPSPlus6encodeEc+0xc0>
     b22:	f9 01       	movw	r30, r18
     b24:	ec 57       	subi	r30, 0x7C	; 124
     b26:	ff 4f       	sbci	r31, 0xFF	; 255
     b28:	80 81       	ld	r24, Z
     b2a:	86 27       	eor	r24, r22
     b2c:	80 83       	st	Z, r24
     b2e:	d6 2e       	mov	r13, r22
     b30:	e9 01       	movw	r28, r18
     b32:	f8 01       	movw	r30, r16
     b34:	80 81       	ld	r24, Z
     b36:	8f 30       	cpi	r24, 0x0F	; 15
     b38:	50 f4       	brcc	.+20     	; 0xb4e <_ZN11TinyGPSPlus6encodeEc+0x7e>
     b3a:	f9 01       	movw	r30, r18
     b3c:	e8 0f       	add	r30, r24
     b3e:	f1 1d       	adc	r31, r1
     b40:	ea 57       	subi	r30, 0x7A	; 122
     b42:	ff 4f       	sbci	r31, 0xFF	; 255
     b44:	10 82       	st	Z, r1
     b46:	c9 01       	movw	r24, r18
     b48:	0e 94 d2 03 	call	0x7a4	; 0x7a4 <_ZN11TinyGPSPlus16endOfTermHandlerEv>
     b4c:	01 c0       	rjmp	.+2      	; 0xb50 <_ZN11TinyGPSPlus6encodeEc+0x80>
     b4e:	80 e0       	ldi	r24, 0x00	; 0
     b50:	ca 56       	subi	r28, 0x6A	; 106
     b52:	df 4f       	sbci	r29, 0xFF	; 255
     b54:	98 81       	ld	r25, Y
     b56:	9f 5f       	subi	r25, 0xFF	; 255
     b58:	98 83       	st	Y, r25
     b5a:	f8 01       	movw	r30, r16
     b5c:	10 82       	st	Z, r1
     b5e:	91 e0       	ldi	r25, 0x01	; 1
     b60:	fa e2       	ldi	r31, 0x2A	; 42
     b62:	df 12       	cpse	r13, r31
     b64:	90 e0       	ldi	r25, 0x00	; 0
     b66:	f7 01       	movw	r30, r14
     b68:	90 83       	st	Z, r25
     b6a:	2b c0       	rjmp	.+86     	; 0xbc2 <_ZN11TinyGPSPlus6encodeEc+0xf2>
     b6c:	f8 01       	movw	r30, r16
     b6e:	10 82       	st	Z, r1
     b70:	f9 01       	movw	r30, r18
     b72:	ea 56       	subi	r30, 0x6A	; 106
     b74:	ff 4f       	sbci	r31, 0xFF	; 255
     b76:	10 82       	st	Z, r1
     b78:	72 97       	sbiw	r30, 0x12	; 18
     b7a:	10 82       	st	Z, r1
     b7c:	71 96       	adiw	r30, 0x11	; 17
     b7e:	82 e0       	ldi	r24, 0x02	; 2
     b80:	80 83       	st	Z, r24
     b82:	f7 01       	movw	r30, r14
     b84:	10 82       	st	Z, r1
     b86:	f9 01       	movw	r30, r18
     b88:	e8 56       	subi	r30, 0x68	; 104
     b8a:	ff 4f       	sbci	r31, 0xFF	; 255
     b8c:	10 82       	st	Z, r1
     b8e:	18 c0       	rjmp	.+48     	; 0xbc0 <_ZN11TinyGPSPlus6encodeEc+0xf0>
     b90:	f8 01       	movw	r30, r16
     b92:	80 81       	ld	r24, Z
     b94:	8e 30       	cpi	r24, 0x0E	; 14
     b96:	48 f4       	brcc	.+18     	; 0xbaa <_ZN11TinyGPSPlus6encodeEc+0xda>
     b98:	91 e0       	ldi	r25, 0x01	; 1
     b9a:	98 0f       	add	r25, r24
     b9c:	90 83       	st	Z, r25
     b9e:	f9 01       	movw	r30, r18
     ba0:	e8 0f       	add	r30, r24
     ba2:	f1 1d       	adc	r31, r1
     ba4:	ea 57       	subi	r30, 0x7A	; 122
     ba6:	ff 4f       	sbci	r31, 0xFF	; 255
     ba8:	60 83       	st	Z, r22
     baa:	f7 01       	movw	r30, r14
     bac:	80 81       	ld	r24, Z
     bae:	81 11       	cpse	r24, r1
     bb0:	07 c0       	rjmp	.+14     	; 0xbc0 <_ZN11TinyGPSPlus6encodeEc+0xf0>
     bb2:	f9 01       	movw	r30, r18
     bb4:	ec 57       	subi	r30, 0x7C	; 124
     bb6:	ff 4f       	sbci	r31, 0xFF	; 255
     bb8:	90 81       	ld	r25, Z
     bba:	69 27       	eor	r22, r25
     bbc:	60 83       	st	Z, r22
     bbe:	01 c0       	rjmp	.+2      	; 0xbc2 <_ZN11TinyGPSPlus6encodeEc+0xf2>
     bc0:	80 e0       	ldi	r24, 0x00	; 0
     bc2:	df 91       	pop	r29
     bc4:	cf 91       	pop	r28
     bc6:	1f 91       	pop	r17
     bc8:	0f 91       	pop	r16
     bca:	ff 90       	pop	r15
     bcc:	ef 90       	pop	r14
     bce:	df 90       	pop	r13
     bd0:	08 95       	ret

00000bd2 <_ZN17DallasTemperature19defaultAlarmHandlerEPh>:
     bd2:	08 95       	ret

00000bd4 <_ZN17DallasTemperatureC1EP7OneWire>:
     bd4:	fc 01       	movw	r30, r24
     bd6:	89 ee       	ldi	r24, 0xE9	; 233
     bd8:	95 e0       	ldi	r25, 0x05	; 5
     bda:	92 8b       	std	Z+18, r25	; 0x12
     bdc:	81 8b       	std	Z+17, r24	; 0x11
     bde:	76 83       	std	Z+6, r23	; 0x06
     be0:	65 83       	std	Z+5, r22	; 0x05
     be2:	14 82       	std	Z+4, r1	; 0x04
     be4:	10 82       	st	Z, r1
     be6:	89 e0       	ldi	r24, 0x09	; 9
     be8:	81 83       	std	Z+1, r24	; 0x01
     bea:	81 e0       	ldi	r24, 0x01	; 1
     bec:	82 83       	std	Z+2, r24	; 0x02
     bee:	83 83       	std	Z+3, r24	; 0x03
     bf0:	08 95       	ret

00000bf2 <_ZN17DallasTemperature14getDeviceCountEv>:
     bf2:	fc 01       	movw	r30, r24
     bf4:	84 81       	ldd	r24, Z+4	; 0x04
     bf6:	08 95       	ret

00000bf8 <_ZN17DallasTemperature12validAddressEPh>:
     bf8:	cf 93       	push	r28
     bfa:	df 93       	push	r29
     bfc:	eb 01       	movw	r28, r22
     bfe:	67 e0       	ldi	r22, 0x07	; 7
     c00:	ce 01       	movw	r24, r28
     c02:	0e 94 df 0a 	call	0x15be	; 0x15be <_ZN7OneWire4crc8EPKhh>
     c06:	91 e0       	ldi	r25, 0x01	; 1
     c08:	2f 81       	ldd	r18, Y+7	; 0x07
     c0a:	82 13       	cpse	r24, r18
     c0c:	90 e0       	ldi	r25, 0x00	; 0
     c0e:	89 2f       	mov	r24, r25
     c10:	df 91       	pop	r29
     c12:	cf 91       	pop	r28
     c14:	08 95       	ret

00000c16 <_ZN17DallasTemperature10getAddressEPhh>:
     c16:	ef 92       	push	r14
     c18:	ff 92       	push	r15
     c1a:	0f 93       	push	r16
     c1c:	1f 93       	push	r17
     c1e:	cf 93       	push	r28
     c20:	df 93       	push	r29
     c22:	8c 01       	movw	r16, r24
     c24:	7b 01       	movw	r14, r22
     c26:	d4 2f       	mov	r29, r20
     c28:	fc 01       	movw	r30, r24
     c2a:	85 81       	ldd	r24, Z+5	; 0x05
     c2c:	96 81       	ldd	r25, Z+6	; 0x06
     c2e:	0e 94 1e 0a 	call	0x143c	; 0x143c <_ZN7OneWire12reset_searchEv>
     c32:	c0 e0       	ldi	r28, 0x00	; 0
     c34:	b7 01       	movw	r22, r14
     c36:	f8 01       	movw	r30, r16
     c38:	85 81       	ldd	r24, Z+5	; 0x05
     c3a:	96 81       	ldd	r25, Z+6	; 0x06
     c3c:	0e 94 4f 0a 	call	0x149e	; 0x149e <_ZN7OneWire6searchEPh>
     c40:	88 23       	and	r24, r24
     c42:	59 f0       	breq	.+22     	; 0xc5a <_ZN17DallasTemperature10getAddressEPhh+0x44>
     c44:	cd 13       	cpse	r28, r29
     c46:	06 c0       	rjmp	.+12     	; 0xc54 <_ZN17DallasTemperature10getAddressEPhh+0x3e>
     c48:	b7 01       	movw	r22, r14
     c4a:	c8 01       	movw	r24, r16
     c4c:	0e 94 fc 05 	call	0xbf8	; 0xbf8 <_ZN17DallasTemperature12validAddressEPh>
     c50:	81 11       	cpse	r24, r1
     c52:	04 c0       	rjmp	.+8      	; 0xc5c <_ZN17DallasTemperature10getAddressEPhh+0x46>
     c54:	cf 5f       	subi	r28, 0xFF	; 255
     c56:	dc 17       	cp	r29, r28
     c58:	68 f7       	brcc	.-38     	; 0xc34 <_ZN17DallasTemperature10getAddressEPhh+0x1e>
     c5a:	80 e0       	ldi	r24, 0x00	; 0
     c5c:	df 91       	pop	r29
     c5e:	cf 91       	pop	r28
     c60:	1f 91       	pop	r17
     c62:	0f 91       	pop	r16
     c64:	ff 90       	pop	r15
     c66:	ef 90       	pop	r14
     c68:	08 95       	ret

00000c6a <_ZN17DallasTemperature14readScratchPadEPhS0_>:
     c6a:	ef 92       	push	r14
     c6c:	ff 92       	push	r15
     c6e:	0f 93       	push	r16
     c70:	1f 93       	push	r17
     c72:	cf 93       	push	r28
     c74:	df 93       	push	r29
     c76:	00 d0       	rcall	.+0      	; 0xc78 <_ZN17DallasTemperature14readScratchPadEPhS0_+0xe>
     c78:	cd b7       	in	r28, 0x3d	; 61
     c7a:	de b7       	in	r29, 0x3e	; 62
     c7c:	7c 01       	movw	r14, r24
     c7e:	8a 01       	movw	r16, r20
     c80:	fc 01       	movw	r30, r24
     c82:	85 81       	ldd	r24, Z+5	; 0x05
     c84:	96 81       	ldd	r25, Z+6	; 0x06
     c86:	69 83       	std	Y+1, r22	; 0x01
     c88:	7a 83       	std	Y+2, r23	; 0x02
     c8a:	0e 94 f2 08 	call	0x11e4	; 0x11e4 <_ZN7OneWire5resetEv>
     c8e:	69 81       	ldd	r22, Y+1	; 0x01
     c90:	7a 81       	ldd	r23, Y+2	; 0x02
     c92:	f7 01       	movw	r30, r14
     c94:	85 81       	ldd	r24, Z+5	; 0x05
     c96:	96 81       	ldd	r25, Z+6	; 0x06
     c98:	0e 94 ed 09 	call	0x13da	; 0x13da <_ZN7OneWire6selectEPKh>
     c9c:	40 e0       	ldi	r20, 0x00	; 0
     c9e:	6e eb       	ldi	r22, 0xBE	; 190
     ca0:	f7 01       	movw	r30, r14
     ca2:	85 81       	ldd	r24, Z+5	; 0x05
     ca4:	96 81       	ldd	r25, Z+6	; 0x06
     ca6:	0e 94 8f 09 	call	0x131e	; 0x131e <_ZN7OneWire5writeEhh>
     caa:	f7 01       	movw	r30, r14
     cac:	85 81       	ldd	r24, Z+5	; 0x05
     cae:	96 81       	ldd	r25, Z+6	; 0x06
     cb0:	0e 94 d1 09 	call	0x13a2	; 0x13a2 <_ZN7OneWire4readEv>
     cb4:	f8 01       	movw	r30, r16
     cb6:	80 83       	st	Z, r24
     cb8:	f7 01       	movw	r30, r14
     cba:	85 81       	ldd	r24, Z+5	; 0x05
     cbc:	96 81       	ldd	r25, Z+6	; 0x06
     cbe:	0e 94 d1 09 	call	0x13a2	; 0x13a2 <_ZN7OneWire4readEv>
     cc2:	f8 01       	movw	r30, r16
     cc4:	81 83       	std	Z+1, r24	; 0x01
     cc6:	f7 01       	movw	r30, r14
     cc8:	85 81       	ldd	r24, Z+5	; 0x05
     cca:	96 81       	ldd	r25, Z+6	; 0x06
     ccc:	0e 94 d1 09 	call	0x13a2	; 0x13a2 <_ZN7OneWire4readEv>
     cd0:	f8 01       	movw	r30, r16
     cd2:	82 83       	std	Z+2, r24	; 0x02
     cd4:	f7 01       	movw	r30, r14
     cd6:	85 81       	ldd	r24, Z+5	; 0x05
     cd8:	96 81       	ldd	r25, Z+6	; 0x06
     cda:	0e 94 d1 09 	call	0x13a2	; 0x13a2 <_ZN7OneWire4readEv>
     cde:	f8 01       	movw	r30, r16
     ce0:	83 83       	std	Z+3, r24	; 0x03
     ce2:	f7 01       	movw	r30, r14
     ce4:	85 81       	ldd	r24, Z+5	; 0x05
     ce6:	96 81       	ldd	r25, Z+6	; 0x06
     ce8:	0e 94 d1 09 	call	0x13a2	; 0x13a2 <_ZN7OneWire4readEv>
     cec:	f8 01       	movw	r30, r16
     cee:	84 83       	std	Z+4, r24	; 0x04
     cf0:	f7 01       	movw	r30, r14
     cf2:	85 81       	ldd	r24, Z+5	; 0x05
     cf4:	96 81       	ldd	r25, Z+6	; 0x06
     cf6:	0e 94 d1 09 	call	0x13a2	; 0x13a2 <_ZN7OneWire4readEv>
     cfa:	f8 01       	movw	r30, r16
     cfc:	85 83       	std	Z+5, r24	; 0x05
     cfe:	f7 01       	movw	r30, r14
     d00:	85 81       	ldd	r24, Z+5	; 0x05
     d02:	96 81       	ldd	r25, Z+6	; 0x06
     d04:	0e 94 d1 09 	call	0x13a2	; 0x13a2 <_ZN7OneWire4readEv>
     d08:	f8 01       	movw	r30, r16
     d0a:	86 83       	std	Z+6, r24	; 0x06
     d0c:	f7 01       	movw	r30, r14
     d0e:	85 81       	ldd	r24, Z+5	; 0x05
     d10:	96 81       	ldd	r25, Z+6	; 0x06
     d12:	0e 94 d1 09 	call	0x13a2	; 0x13a2 <_ZN7OneWire4readEv>
     d16:	f8 01       	movw	r30, r16
     d18:	87 83       	std	Z+7, r24	; 0x07
     d1a:	f7 01       	movw	r30, r14
     d1c:	85 81       	ldd	r24, Z+5	; 0x05
     d1e:	96 81       	ldd	r25, Z+6	; 0x06
     d20:	0e 94 d1 09 	call	0x13a2	; 0x13a2 <_ZN7OneWire4readEv>
     d24:	f8 01       	movw	r30, r16
     d26:	80 87       	std	Z+8, r24	; 0x08
     d28:	f7 01       	movw	r30, r14
     d2a:	85 81       	ldd	r24, Z+5	; 0x05
     d2c:	96 81       	ldd	r25, Z+6	; 0x06
     d2e:	0f 90       	pop	r0
     d30:	0f 90       	pop	r0
     d32:	df 91       	pop	r29
     d34:	cf 91       	pop	r28
     d36:	1f 91       	pop	r17
     d38:	0f 91       	pop	r16
     d3a:	ff 90       	pop	r15
     d3c:	ef 90       	pop	r14
     d3e:	0c 94 f2 08 	jmp	0x11e4	; 0x11e4 <_ZN7OneWire5resetEv>

00000d42 <_ZN17DallasTemperature11isConnectedEPhS0_>:
     d42:	cf 93       	push	r28
     d44:	df 93       	push	r29
     d46:	ea 01       	movw	r28, r20
     d48:	0e 94 35 06 	call	0xc6a	; 0xc6a <_ZN17DallasTemperature14readScratchPadEPhS0_>
     d4c:	68 e0       	ldi	r22, 0x08	; 8
     d4e:	ce 01       	movw	r24, r28
     d50:	0e 94 df 0a 	call	0x15be	; 0x15be <_ZN7OneWire4crc8EPKhh>
     d54:	91 e0       	ldi	r25, 0x01	; 1
     d56:	28 85       	ldd	r18, Y+8	; 0x08
     d58:	82 13       	cpse	r24, r18
     d5a:	90 e0       	ldi	r25, 0x00	; 0
     d5c:	89 2f       	mov	r24, r25
     d5e:	df 91       	pop	r29
     d60:	cf 91       	pop	r28
     d62:	08 95       	ret

00000d64 <_ZN17DallasTemperature15readPowerSupplyEPh>:
     d64:	ef 92       	push	r14
     d66:	ff 92       	push	r15
     d68:	1f 93       	push	r17
     d6a:	cf 93       	push	r28
     d6c:	df 93       	push	r29
     d6e:	00 d0       	rcall	.+0      	; 0xd70 <_ZN17DallasTemperature15readPowerSupplyEPh+0xc>
     d70:	cd b7       	in	r28, 0x3d	; 61
     d72:	de b7       	in	r29, 0x3e	; 62
     d74:	7c 01       	movw	r14, r24
     d76:	fc 01       	movw	r30, r24
     d78:	85 81       	ldd	r24, Z+5	; 0x05
     d7a:	96 81       	ldd	r25, Z+6	; 0x06
     d7c:	69 83       	std	Y+1, r22	; 0x01
     d7e:	7a 83       	std	Y+2, r23	; 0x02
     d80:	0e 94 f2 08 	call	0x11e4	; 0x11e4 <_ZN7OneWire5resetEv>
     d84:	69 81       	ldd	r22, Y+1	; 0x01
     d86:	7a 81       	ldd	r23, Y+2	; 0x02
     d88:	f7 01       	movw	r30, r14
     d8a:	85 81       	ldd	r24, Z+5	; 0x05
     d8c:	96 81       	ldd	r25, Z+6	; 0x06
     d8e:	0e 94 ed 09 	call	0x13da	; 0x13da <_ZN7OneWire6selectEPKh>
     d92:	40 e0       	ldi	r20, 0x00	; 0
     d94:	64 eb       	ldi	r22, 0xB4	; 180
     d96:	f7 01       	movw	r30, r14
     d98:	85 81       	ldd	r24, Z+5	; 0x05
     d9a:	96 81       	ldd	r25, Z+6	; 0x06
     d9c:	0e 94 8f 09 	call	0x131e	; 0x131e <_ZN7OneWire5writeEhh>
     da0:	f7 01       	movw	r30, r14
     da2:	85 81       	ldd	r24, Z+5	; 0x05
     da4:	96 81       	ldd	r25, Z+6	; 0x06
     da6:	0e 94 64 09 	call	0x12c8	; 0x12c8 <_ZN7OneWire8read_bitEv>
     daa:	18 2f       	mov	r17, r24
     dac:	f7 01       	movw	r30, r14
     dae:	85 81       	ldd	r24, Z+5	; 0x05
     db0:	96 81       	ldd	r25, Z+6	; 0x06
     db2:	0e 94 f2 08 	call	0x11e4	; 0x11e4 <_ZN7OneWire5resetEv>
     db6:	81 e0       	ldi	r24, 0x01	; 1
     db8:	11 11       	cpse	r17, r1
     dba:	80 e0       	ldi	r24, 0x00	; 0
     dbc:	0f 90       	pop	r0
     dbe:	0f 90       	pop	r0
     dc0:	df 91       	pop	r29
     dc2:	cf 91       	pop	r28
     dc4:	1f 91       	pop	r17
     dc6:	ff 90       	pop	r15
     dc8:	ef 90       	pop	r14
     dca:	08 95       	ret

00000dcc <_ZN17DallasTemperature13getResolutionEPh>:
     dcc:	cf 93       	push	r28
     dce:	df 93       	push	r29
     dd0:	cd b7       	in	r28, 0x3d	; 61
     dd2:	de b7       	in	r29, 0x3e	; 62
     dd4:	29 97       	sbiw	r28, 0x09	; 9
     dd6:	0f b6       	in	r0, 0x3f	; 63
     dd8:	f8 94       	cli
     dda:	de bf       	out	0x3e, r29	; 62
     ddc:	0f be       	out	0x3f, r0	; 63
     dde:	cd bf       	out	0x3d, r28	; 61
     de0:	fb 01       	movw	r30, r22
     de2:	20 81       	ld	r18, Z
     de4:	20 31       	cpi	r18, 0x10	; 16
     de6:	d9 f0       	breq	.+54     	; 0xe1e <_ZN17DallasTemperature13getResolutionEPh+0x52>
     de8:	ae 01       	movw	r20, r28
     dea:	4f 5f       	subi	r20, 0xFF	; 255
     dec:	5f 4f       	sbci	r21, 0xFF	; 255
     dee:	0e 94 a1 06 	call	0xd42	; 0xd42 <_ZN17DallasTemperature11isConnectedEPhS0_>
     df2:	88 23       	and	r24, r24
     df4:	81 f0       	breq	.+32     	; 0xe16 <_ZN17DallasTemperature13getResolutionEPh+0x4a>
     df6:	8d 81       	ldd	r24, Y+5	; 0x05
     df8:	8f 33       	cpi	r24, 0x3F	; 63
     dfa:	59 f0       	breq	.+22     	; 0xe12 <_ZN17DallasTemperature13getResolutionEPh+0x46>
     dfc:	18 f4       	brcc	.+6      	; 0xe04 <_ZN17DallasTemperature13getResolutionEPh+0x38>
     dfe:	8f 31       	cpi	r24, 0x1F	; 31
     e00:	71 f0       	breq	.+28     	; 0xe1e <_ZN17DallasTemperature13getResolutionEPh+0x52>
     e02:	09 c0       	rjmp	.+18     	; 0xe16 <_ZN17DallasTemperature13getResolutionEPh+0x4a>
     e04:	8f 35       	cpi	r24, 0x5F	; 95
     e06:	19 f0       	breq	.+6      	; 0xe0e <_ZN17DallasTemperature13getResolutionEPh+0x42>
     e08:	8f 37       	cpi	r24, 0x7F	; 127
     e0a:	39 f0       	breq	.+14     	; 0xe1a <_ZN17DallasTemperature13getResolutionEPh+0x4e>
     e0c:	04 c0       	rjmp	.+8      	; 0xe16 <_ZN17DallasTemperature13getResolutionEPh+0x4a>
     e0e:	8b e0       	ldi	r24, 0x0B	; 11
     e10:	07 c0       	rjmp	.+14     	; 0xe20 <_ZN17DallasTemperature13getResolutionEPh+0x54>
     e12:	8a e0       	ldi	r24, 0x0A	; 10
     e14:	05 c0       	rjmp	.+10     	; 0xe20 <_ZN17DallasTemperature13getResolutionEPh+0x54>
     e16:	80 e0       	ldi	r24, 0x00	; 0
     e18:	03 c0       	rjmp	.+6      	; 0xe20 <_ZN17DallasTemperature13getResolutionEPh+0x54>
     e1a:	8c e0       	ldi	r24, 0x0C	; 12
     e1c:	01 c0       	rjmp	.+2      	; 0xe20 <_ZN17DallasTemperature13getResolutionEPh+0x54>
     e1e:	89 e0       	ldi	r24, 0x09	; 9
     e20:	29 96       	adiw	r28, 0x09	; 9
     e22:	0f b6       	in	r0, 0x3f	; 63
     e24:	f8 94       	cli
     e26:	de bf       	out	0x3e, r29	; 62
     e28:	0f be       	out	0x3f, r0	; 63
     e2a:	cd bf       	out	0x3d, r28	; 61
     e2c:	df 91       	pop	r29
     e2e:	cf 91       	pop	r28
     e30:	08 95       	ret

00000e32 <_ZN17DallasTemperature5beginEv>:
     e32:	ef 92       	push	r14
     e34:	ff 92       	push	r15
     e36:	0f 93       	push	r16
     e38:	1f 93       	push	r17
     e3a:	cf 93       	push	r28
     e3c:	df 93       	push	r29
     e3e:	cd b7       	in	r28, 0x3d	; 61
     e40:	de b7       	in	r29, 0x3e	; 62
     e42:	61 97       	sbiw	r28, 0x11	; 17
     e44:	0f b6       	in	r0, 0x3f	; 63
     e46:	f8 94       	cli
     e48:	de bf       	out	0x3e, r29	; 62
     e4a:	0f be       	out	0x3f, r0	; 63
     e4c:	cd bf       	out	0x3d, r28	; 61
     e4e:	8c 01       	movw	r16, r24
     e50:	fc 01       	movw	r30, r24
     e52:	85 81       	ldd	r24, Z+5	; 0x05
     e54:	96 81       	ldd	r25, Z+6	; 0x06
     e56:	0e 94 1e 0a 	call	0x143c	; 0x143c <_ZN7OneWire12reset_searchEv>
     e5a:	f8 01       	movw	r30, r16
     e5c:	14 82       	std	Z+4, r1	; 0x04
     e5e:	ff 24       	eor	r15, r15
     e60:	f3 94       	inc	r15
     e62:	be 01       	movw	r22, r28
     e64:	66 5f       	subi	r22, 0xF6	; 246
     e66:	7f 4f       	sbci	r23, 0xFF	; 255
     e68:	f8 01       	movw	r30, r16
     e6a:	85 81       	ldd	r24, Z+5	; 0x05
     e6c:	96 81       	ldd	r25, Z+6	; 0x06
     e6e:	0e 94 4f 0a 	call	0x149e	; 0x149e <_ZN7OneWire6searchEPh>
     e72:	88 23       	and	r24, r24
     e74:	c9 f1       	breq	.+114    	; 0xee8 <_ZN17DallasTemperature5beginEv+0xb6>
     e76:	be 01       	movw	r22, r28
     e78:	66 5f       	subi	r22, 0xF6	; 246
     e7a:	7f 4f       	sbci	r23, 0xFF	; 255
     e7c:	c8 01       	movw	r24, r16
     e7e:	0e 94 fc 05 	call	0xbf8	; 0xbf8 <_ZN17DallasTemperature12validAddressEPh>
     e82:	88 23       	and	r24, r24
     e84:	71 f3       	breq	.-36     	; 0xe62 <_ZN17DallasTemperature5beginEv+0x30>
     e86:	f8 01       	movw	r30, r16
     e88:	80 81       	ld	r24, Z
     e8a:	81 11       	cpse	r24, r1
     e8c:	08 c0       	rjmp	.+16     	; 0xe9e <_ZN17DallasTemperature5beginEv+0x6c>
     e8e:	be 01       	movw	r22, r28
     e90:	66 5f       	subi	r22, 0xF6	; 246
     e92:	7f 4f       	sbci	r23, 0xFF	; 255
     e94:	c8 01       	movw	r24, r16
     e96:	0e 94 b2 06 	call	0xd64	; 0xd64 <_ZN17DallasTemperature15readPowerSupplyEPh>
     e9a:	81 11       	cpse	r24, r1
     e9c:	22 c0       	rjmp	.+68     	; 0xee2 <_ZN17DallasTemperature5beginEv+0xb0>
     e9e:	ae 01       	movw	r20, r28
     ea0:	4f 5f       	subi	r20, 0xFF	; 255
     ea2:	5f 4f       	sbci	r21, 0xFF	; 255
     ea4:	be 01       	movw	r22, r28
     ea6:	66 5f       	subi	r22, 0xF6	; 246
     ea8:	7f 4f       	sbci	r23, 0xFF	; 255
     eaa:	c8 01       	movw	r24, r16
     eac:	0e 94 35 06 	call	0xc6a	; 0xc6a <_ZN17DallasTemperature14readScratchPadEPhS0_>
     eb0:	f8 01       	movw	r30, r16
     eb2:	e1 80       	ldd	r14, Z+1	; 0x01
     eb4:	be 01       	movw	r22, r28
     eb6:	66 5f       	subi	r22, 0xF6	; 246
     eb8:	7f 4f       	sbci	r23, 0xFF	; 255
     eba:	c8 01       	movw	r24, r16
     ebc:	0e 94 e6 06 	call	0xdcc	; 0xdcc <_ZN17DallasTemperature13getResolutionEPh>
     ec0:	8e 15       	cp	r24, r14
     ec2:	18 f4       	brcc	.+6      	; 0xeca <_ZN17DallasTemperature5beginEv+0x98>
     ec4:	f8 01       	movw	r30, r16
     ec6:	81 81       	ldd	r24, Z+1	; 0x01
     ec8:	06 c0       	rjmp	.+12     	; 0xed6 <_ZN17DallasTemperature5beginEv+0xa4>
     eca:	be 01       	movw	r22, r28
     ecc:	66 5f       	subi	r22, 0xF6	; 246
     ece:	7f 4f       	sbci	r23, 0xFF	; 255
     ed0:	c8 01       	movw	r24, r16
     ed2:	0e 94 e6 06 	call	0xdcc	; 0xdcc <_ZN17DallasTemperature13getResolutionEPh>
     ed6:	f8 01       	movw	r30, r16
     ed8:	81 83       	std	Z+1, r24	; 0x01
     eda:	84 81       	ldd	r24, Z+4	; 0x04
     edc:	8f 5f       	subi	r24, 0xFF	; 255
     ede:	84 83       	std	Z+4, r24	; 0x04
     ee0:	c0 cf       	rjmp	.-128    	; 0xe62 <_ZN17DallasTemperature5beginEv+0x30>
     ee2:	f8 01       	movw	r30, r16
     ee4:	f0 82       	st	Z, r15
     ee6:	db cf       	rjmp	.-74     	; 0xe9e <_ZN17DallasTemperature5beginEv+0x6c>
     ee8:	61 96       	adiw	r28, 0x11	; 17
     eea:	0f b6       	in	r0, 0x3f	; 63
     eec:	f8 94       	cli
     eee:	de bf       	out	0x3e, r29	; 62
     ef0:	0f be       	out	0x3f, r0	; 63
     ef2:	cd bf       	out	0x3d, r28	; 61
     ef4:	df 91       	pop	r29
     ef6:	cf 91       	pop	r28
     ef8:	1f 91       	pop	r17
     efa:	0f 91       	pop	r16
     efc:	ff 90       	pop	r15
     efe:	ef 90       	pop	r14
     f00:	08 95       	ret

00000f02 <_ZN17DallasTemperature21isConversionAvailableEPh>:
     f02:	cf 93       	push	r28
     f04:	df 93       	push	r29
     f06:	cd b7       	in	r28, 0x3d	; 61
     f08:	de b7       	in	r29, 0x3e	; 62
     f0a:	29 97       	sbiw	r28, 0x09	; 9
     f0c:	0f b6       	in	r0, 0x3f	; 63
     f0e:	f8 94       	cli
     f10:	de bf       	out	0x3e, r29	; 62
     f12:	0f be       	out	0x3f, r0	; 63
     f14:	cd bf       	out	0x3d, r28	; 61
     f16:	ae 01       	movw	r20, r28
     f18:	4f 5f       	subi	r20, 0xFF	; 255
     f1a:	5f 4f       	sbci	r21, 0xFF	; 255
     f1c:	0e 94 35 06 	call	0xc6a	; 0xc6a <_ZN17DallasTemperature14readScratchPadEPhS0_>
     f20:	81 e0       	ldi	r24, 0x01	; 1
     f22:	99 81       	ldd	r25, Y+1	; 0x01
     f24:	91 11       	cpse	r25, r1
     f26:	01 c0       	rjmp	.+2      	; 0xf2a <_ZN17DallasTemperature21isConversionAvailableEPh+0x28>
     f28:	80 e0       	ldi	r24, 0x00	; 0
     f2a:	29 96       	adiw	r28, 0x09	; 9
     f2c:	0f b6       	in	r0, 0x3f	; 63
     f2e:	f8 94       	cli
     f30:	de bf       	out	0x3e, r29	; 62
     f32:	0f be       	out	0x3f, r0	; 63
     f34:	cd bf       	out	0x3d, r28	; 61
     f36:	df 91       	pop	r29
     f38:	cf 91       	pop	r28
     f3a:	08 95       	ret

00000f3c <_ZN17DallasTemperature27blockTillConversionCompleteEPhS0_>:
     f3c:	cf 92       	push	r12
     f3e:	df 92       	push	r13
     f40:	ef 92       	push	r14
     f42:	ff 92       	push	r15
     f44:	0f 93       	push	r16
     f46:	1f 93       	push	r17
     f48:	cf 93       	push	r28
     f4a:	df 93       	push	r29
     f4c:	ec 01       	movw	r28, r24
     f4e:	8b 01       	movw	r16, r22
     f50:	45 2b       	or	r20, r21
     f52:	f1 f0       	breq	.+60     	; 0xf90 <_ZN17DallasTemperature27blockTillConversionCompleteEPhS0_+0x54>
     f54:	8b 81       	ldd	r24, Y+3	; 0x03
     f56:	88 23       	and	r24, r24
     f58:	d9 f0       	breq	.+54     	; 0xf90 <_ZN17DallasTemperature27blockTillConversionCompleteEPhS0_+0x54>
     f5a:	88 81       	ld	r24, Y
     f5c:	81 11       	cpse	r24, r1
     f5e:	18 c0       	rjmp	.+48     	; 0xf90 <_ZN17DallasTemperature27blockTillConversionCompleteEPhS0_+0x54>
     f60:	0e 94 e6 1b 	call	0x37cc	; 0x37cc <millis>
     f64:	6b 01       	movw	r12, r22
     f66:	7c 01       	movw	r14, r24
     f68:	60 e0       	ldi	r22, 0x00	; 0
     f6a:	70 e0       	ldi	r23, 0x00	; 0
     f6c:	ce 01       	movw	r24, r28
     f6e:	0e 94 81 07 	call	0xf02	; 0xf02 <_ZN17DallasTemperature21isConversionAvailableEPh>
     f72:	81 11       	cpse	r24, r1
     f74:	0d c0       	rjmp	.+26     	; 0xf90 <_ZN17DallasTemperature27blockTillConversionCompleteEPhS0_+0x54>
     f76:	0e 94 e6 1b 	call	0x37cc	; 0x37cc <millis>
     f7a:	ab 01       	movw	r20, r22
     f7c:	bc 01       	movw	r22, r24
     f7e:	4c 19       	sub	r20, r12
     f80:	5d 09       	sbc	r21, r13
     f82:	6e 09       	sbc	r22, r14
     f84:	7f 09       	sbc	r23, r15
     f86:	4e 3e       	cpi	r20, 0xEE	; 238
     f88:	52 40       	sbci	r21, 0x02	; 2
     f8a:	61 05       	cpc	r22, r1
     f8c:	71 05       	cpc	r23, r1
     f8e:	60 f3       	brcs	.-40     	; 0xf68 <_ZN17DallasTemperature27blockTillConversionCompleteEPhS0_+0x2c>
     f90:	f8 01       	movw	r30, r16
     f92:	80 81       	ld	r24, Z
     f94:	8a 30       	cpi	r24, 0x0A	; 10
     f96:	49 f0       	breq	.+18     	; 0xfaa <_ZN17DallasTemperature27blockTillConversionCompleteEPhS0_+0x6e>
     f98:	8b 30       	cpi	r24, 0x0B	; 11
     f9a:	61 f0       	breq	.+24     	; 0xfb4 <_ZN17DallasTemperature27blockTillConversionCompleteEPhS0_+0x78>
     f9c:	89 30       	cpi	r24, 0x09	; 9
     f9e:	79 f4       	brne	.+30     	; 0xfbe <_ZN17DallasTemperature27blockTillConversionCompleteEPhS0_+0x82>
     fa0:	6e e5       	ldi	r22, 0x5E	; 94
     fa2:	70 e0       	ldi	r23, 0x00	; 0
     fa4:	80 e0       	ldi	r24, 0x00	; 0
     fa6:	90 e0       	ldi	r25, 0x00	; 0
     fa8:	0e c0       	rjmp	.+28     	; 0xfc6 <_ZN17DallasTemperature27blockTillConversionCompleteEPhS0_+0x8a>
     faa:	6c eb       	ldi	r22, 0xBC	; 188
     fac:	70 e0       	ldi	r23, 0x00	; 0
     fae:	80 e0       	ldi	r24, 0x00	; 0
     fb0:	90 e0       	ldi	r25, 0x00	; 0
     fb2:	09 c0       	rjmp	.+18     	; 0xfc6 <_ZN17DallasTemperature27blockTillConversionCompleteEPhS0_+0x8a>
     fb4:	67 e7       	ldi	r22, 0x77	; 119
     fb6:	71 e0       	ldi	r23, 0x01	; 1
     fb8:	80 e0       	ldi	r24, 0x00	; 0
     fba:	90 e0       	ldi	r25, 0x00	; 0
     fbc:	04 c0       	rjmp	.+8      	; 0xfc6 <_ZN17DallasTemperature27blockTillConversionCompleteEPhS0_+0x8a>
     fbe:	6e ee       	ldi	r22, 0xEE	; 238
     fc0:	72 e0       	ldi	r23, 0x02	; 2
     fc2:	80 e0       	ldi	r24, 0x00	; 0
     fc4:	90 e0       	ldi	r25, 0x00	; 0
     fc6:	df 91       	pop	r29
     fc8:	cf 91       	pop	r28
     fca:	1f 91       	pop	r17
     fcc:	0f 91       	pop	r16
     fce:	ff 90       	pop	r15
     fd0:	ef 90       	pop	r14
     fd2:	df 90       	pop	r13
     fd4:	cf 90       	pop	r12
     fd6:	0c 94 17 1c 	jmp	0x382e	; 0x382e <delay>

00000fda <_ZN17DallasTemperature19requestTemperaturesEv>:
     fda:	cf 93       	push	r28
     fdc:	df 93       	push	r29
     fde:	ec 01       	movw	r28, r24
     fe0:	8d 81       	ldd	r24, Y+5	; 0x05
     fe2:	9e 81       	ldd	r25, Y+6	; 0x06
     fe4:	0e 94 f2 08 	call	0x11e4	; 0x11e4 <_ZN7OneWire5resetEv>
     fe8:	8d 81       	ldd	r24, Y+5	; 0x05
     fea:	9e 81       	ldd	r25, Y+6	; 0x06
     fec:	0e 94 1a 0a 	call	0x1434	; 0x1434 <_ZN7OneWire4skipEv>
     ff0:	48 81       	ld	r20, Y
     ff2:	64 e4       	ldi	r22, 0x44	; 68
     ff4:	8d 81       	ldd	r24, Y+5	; 0x05
     ff6:	9e 81       	ldd	r25, Y+6	; 0x06
     ff8:	0e 94 8f 09 	call	0x131e	; 0x131e <_ZN7OneWire5writeEhh>
     ffc:	8a 81       	ldd	r24, Y+2	; 0x02
     ffe:	88 23       	and	r24, r24
    1000:	51 f0       	breq	.+20     	; 0x1016 <_ZN17DallasTemperature19requestTemperaturesEv+0x3c>
    1002:	be 01       	movw	r22, r28
    1004:	6f 5f       	subi	r22, 0xFF	; 255
    1006:	7f 4f       	sbci	r23, 0xFF	; 255
    1008:	40 e0       	ldi	r20, 0x00	; 0
    100a:	50 e0       	ldi	r21, 0x00	; 0
    100c:	ce 01       	movw	r24, r28
    100e:	df 91       	pop	r29
    1010:	cf 91       	pop	r28
    1012:	0c 94 9e 07 	jmp	0xf3c	; 0xf3c <_ZN17DallasTemperature27blockTillConversionCompleteEPhS0_>
    1016:	df 91       	pop	r29
    1018:	cf 91       	pop	r28
    101a:	08 95       	ret

0000101c <_ZN17DallasTemperature20calculateTemperatureEPhS0_>:
    101c:	4f 92       	push	r4
    101e:	5f 92       	push	r5
    1020:	6f 92       	push	r6
    1022:	7f 92       	push	r7
    1024:	8f 92       	push	r8
    1026:	9f 92       	push	r9
    1028:	af 92       	push	r10
    102a:	bf 92       	push	r11
    102c:	ff 92       	push	r15
    102e:	cf 93       	push	r28
    1030:	df 93       	push	r29
    1032:	fb 01       	movw	r30, r22
    1034:	ea 01       	movw	r28, r20
    1036:	89 81       	ldd	r24, Y+1	; 0x01
    1038:	68 2f       	mov	r22, r24
    103a:	70 e0       	ldi	r23, 0x00	; 0
    103c:	76 2f       	mov	r23, r22
    103e:	66 27       	eor	r22, r22
    1040:	88 81       	ld	r24, Y
    1042:	68 2b       	or	r22, r24
    1044:	80 81       	ld	r24, Z
    1046:	82 32       	cpi	r24, 0x22	; 34
    1048:	b1 f1       	breq	.+108    	; 0x10b6 <_ZN17DallasTemperature20calculateTemperatureEPhS0_+0x9a>
    104a:	88 32       	cpi	r24, 0x28	; 40
    104c:	a1 f1       	breq	.+104    	; 0x10b6 <_ZN17DallasTemperature20calculateTemperatureEPhS0_+0x9a>
    104e:	80 31       	cpi	r24, 0x10	; 16
    1050:	09 f0       	breq	.+2      	; 0x1054 <_ZN17DallasTemperature20calculateTemperatureEPhS0_+0x38>
    1052:	78 c0       	rjmp	.+240    	; 0x1144 <_ZN17DallasTemperature20calculateTemperatureEPhS0_+0x128>
    1054:	ff 80       	ldd	r15, Y+7	; 0x07
    1056:	75 95       	asr	r23
    1058:	67 95       	ror	r22
    105a:	07 2e       	mov	r0, r23
    105c:	00 0c       	add	r0, r0
    105e:	88 0b       	sbc	r24, r24
    1060:	99 0b       	sbc	r25, r25
    1062:	0e 94 7a 1e 	call	0x3cf4	; 0x3cf4 <__floatsisf>
    1066:	20 e0       	ldi	r18, 0x00	; 0
    1068:	30 e0       	ldi	r19, 0x00	; 0
    106a:	40 e8       	ldi	r20, 0x80	; 128
    106c:	5e e3       	ldi	r21, 0x3E	; 62
    106e:	0e 94 5e 1d 	call	0x3abc	; 0x3abc <__subsf3>
    1072:	4b 01       	movw	r8, r22
    1074:	5c 01       	movw	r10, r24
    1076:	8f 2d       	mov	r24, r15
    1078:	90 e0       	ldi	r25, 0x00	; 0
    107a:	2e 81       	ldd	r18, Y+6	; 0x06
    107c:	82 1b       	sub	r24, r18
    107e:	91 09       	sbc	r25, r1
    1080:	bc 01       	movw	r22, r24
    1082:	99 0f       	add	r25, r25
    1084:	88 0b       	sbc	r24, r24
    1086:	99 0b       	sbc	r25, r25
    1088:	0e 94 7a 1e 	call	0x3cf4	; 0x3cf4 <__floatsisf>
    108c:	2b 01       	movw	r4, r22
    108e:	3c 01       	movw	r6, r24
    1090:	6f 2d       	mov	r22, r15
    1092:	70 e0       	ldi	r23, 0x00	; 0
    1094:	80 e0       	ldi	r24, 0x00	; 0
    1096:	90 e0       	ldi	r25, 0x00	; 0
    1098:	0e 94 78 1e 	call	0x3cf0	; 0x3cf0 <__floatunsisf>
    109c:	9b 01       	movw	r18, r22
    109e:	ac 01       	movw	r20, r24
    10a0:	c3 01       	movw	r24, r6
    10a2:	b2 01       	movw	r22, r4
    10a4:	0e 94 d0 1d 	call	0x3ba0	; 0x3ba0 <__divsf3>
    10a8:	9b 01       	movw	r18, r22
    10aa:	ac 01       	movw	r20, r24
    10ac:	c5 01       	movw	r24, r10
    10ae:	b4 01       	movw	r22, r8
    10b0:	0e 94 5f 1d 	call	0x3abe	; 0x3abe <__addsf3>
    10b4:	43 c0       	rjmp	.+134    	; 0x113c <_ZN17DallasTemperature20calculateTemperatureEPhS0_+0x120>
    10b6:	8c 81       	ldd	r24, Y+4	; 0x04
    10b8:	8f 33       	cpi	r24, 0x3F	; 63
    10ba:	81 f1       	breq	.+96     	; 0x111c <_ZN17DallasTemperature20calculateTemperatureEPhS0_+0x100>
    10bc:	98 f4       	brcc	.+38     	; 0x10e4 <_ZN17DallasTemperature20calculateTemperatureEPhS0_+0xc8>
    10be:	8f 31       	cpi	r24, 0x1F	; 31
    10c0:	09 f0       	breq	.+2      	; 0x10c4 <_ZN17DallasTemperature20calculateTemperatureEPhS0_+0xa8>
    10c2:	40 c0       	rjmp	.+128    	; 0x1144 <_ZN17DallasTemperature20calculateTemperatureEPhS0_+0x128>
    10c4:	93 e0       	ldi	r25, 0x03	; 3
    10c6:	75 95       	asr	r23
    10c8:	67 95       	ror	r22
    10ca:	9a 95       	dec	r25
    10cc:	e1 f7       	brne	.-8      	; 0x10c6 <_ZN17DallasTemperature20calculateTemperatureEPhS0_+0xaa>
    10ce:	07 2e       	mov	r0, r23
    10d0:	00 0c       	add	r0, r0
    10d2:	88 0b       	sbc	r24, r24
    10d4:	99 0b       	sbc	r25, r25
    10d6:	0e 94 7a 1e 	call	0x3cf4	; 0x3cf4 <__floatsisf>
    10da:	20 e0       	ldi	r18, 0x00	; 0
    10dc:	30 e0       	ldi	r19, 0x00	; 0
    10de:	40 e0       	ldi	r20, 0x00	; 0
    10e0:	5f e3       	ldi	r21, 0x3F	; 63
    10e2:	2a c0       	rjmp	.+84     	; 0x1138 <_ZN17DallasTemperature20calculateTemperatureEPhS0_+0x11c>
    10e4:	8f 35       	cpi	r24, 0x5F	; 95
    10e6:	69 f0       	breq	.+26     	; 0x1102 <_ZN17DallasTemperature20calculateTemperatureEPhS0_+0xe6>
    10e8:	8f 37       	cpi	r24, 0x7F	; 127
    10ea:	61 f5       	brne	.+88     	; 0x1144 <_ZN17DallasTemperature20calculateTemperatureEPhS0_+0x128>
    10ec:	07 2e       	mov	r0, r23
    10ee:	00 0c       	add	r0, r0
    10f0:	88 0b       	sbc	r24, r24
    10f2:	99 0b       	sbc	r25, r25
    10f4:	0e 94 7a 1e 	call	0x3cf4	; 0x3cf4 <__floatsisf>
    10f8:	20 e0       	ldi	r18, 0x00	; 0
    10fa:	30 e0       	ldi	r19, 0x00	; 0
    10fc:	40 e8       	ldi	r20, 0x80	; 128
    10fe:	5d e3       	ldi	r21, 0x3D	; 61
    1100:	1b c0       	rjmp	.+54     	; 0x1138 <_ZN17DallasTemperature20calculateTemperatureEPhS0_+0x11c>
    1102:	75 95       	asr	r23
    1104:	67 95       	ror	r22
    1106:	07 2e       	mov	r0, r23
    1108:	00 0c       	add	r0, r0
    110a:	88 0b       	sbc	r24, r24
    110c:	99 0b       	sbc	r25, r25
    110e:	0e 94 7a 1e 	call	0x3cf4	; 0x3cf4 <__floatsisf>
    1112:	20 e0       	ldi	r18, 0x00	; 0
    1114:	30 e0       	ldi	r19, 0x00	; 0
    1116:	40 e0       	ldi	r20, 0x00	; 0
    1118:	5e e3       	ldi	r21, 0x3E	; 62
    111a:	0e c0       	rjmp	.+28     	; 0x1138 <_ZN17DallasTemperature20calculateTemperatureEPhS0_+0x11c>
    111c:	75 95       	asr	r23
    111e:	67 95       	ror	r22
    1120:	75 95       	asr	r23
    1122:	67 95       	ror	r22
    1124:	07 2e       	mov	r0, r23
    1126:	00 0c       	add	r0, r0
    1128:	88 0b       	sbc	r24, r24
    112a:	99 0b       	sbc	r25, r25
    112c:	0e 94 7a 1e 	call	0x3cf4	; 0x3cf4 <__floatsisf>
    1130:	20 e0       	ldi	r18, 0x00	; 0
    1132:	30 e0       	ldi	r19, 0x00	; 0
    1134:	40 e8       	ldi	r20, 0x80	; 128
    1136:	5e e3       	ldi	r21, 0x3E	; 62
    1138:	0e 94 2f 1f 	call	0x3e5e	; 0x3e5e <__mulsf3>
    113c:	26 2f       	mov	r18, r22
    113e:	57 2f       	mov	r21, r23
    1140:	48 2f       	mov	r20, r24
    1142:	39 2f       	mov	r19, r25
    1144:	62 2f       	mov	r22, r18
    1146:	75 2f       	mov	r23, r21
    1148:	84 2f       	mov	r24, r20
    114a:	93 2f       	mov	r25, r19
    114c:	df 91       	pop	r29
    114e:	cf 91       	pop	r28
    1150:	ff 90       	pop	r15
    1152:	bf 90       	pop	r11
    1154:	af 90       	pop	r10
    1156:	9f 90       	pop	r9
    1158:	8f 90       	pop	r8
    115a:	7f 90       	pop	r7
    115c:	6f 90       	pop	r6
    115e:	5f 90       	pop	r5
    1160:	4f 90       	pop	r4
    1162:	08 95       	ret

00001164 <_ZN17DallasTemperature8getTempCEPh>:
    1164:	ef 92       	push	r14
    1166:	ff 92       	push	r15
    1168:	0f 93       	push	r16
    116a:	1f 93       	push	r17
    116c:	cf 93       	push	r28
    116e:	df 93       	push	r29
    1170:	cd b7       	in	r28, 0x3d	; 61
    1172:	de b7       	in	r29, 0x3e	; 62
    1174:	29 97       	sbiw	r28, 0x09	; 9
    1176:	0f b6       	in	r0, 0x3f	; 63
    1178:	f8 94       	cli
    117a:	de bf       	out	0x3e, r29	; 62
    117c:	0f be       	out	0x3f, r0	; 63
    117e:	cd bf       	out	0x3d, r28	; 61
    1180:	8c 01       	movw	r16, r24
    1182:	7b 01       	movw	r14, r22
    1184:	ae 01       	movw	r20, r28
    1186:	4f 5f       	subi	r20, 0xFF	; 255
    1188:	5f 4f       	sbci	r21, 0xFF	; 255
    118a:	0e 94 a1 06 	call	0xd42	; 0xd42 <_ZN17DallasTemperature11isConnectedEPhS0_>
    118e:	88 23       	and	r24, r24
    1190:	41 f0       	breq	.+16     	; 0x11a2 <_ZN17DallasTemperature8getTempCEPh+0x3e>
    1192:	ae 01       	movw	r20, r28
    1194:	4f 5f       	subi	r20, 0xFF	; 255
    1196:	5f 4f       	sbci	r21, 0xFF	; 255
    1198:	b7 01       	movw	r22, r14
    119a:	c8 01       	movw	r24, r16
    119c:	0e 94 0e 08 	call	0x101c	; 0x101c <_ZN17DallasTemperature20calculateTemperatureEPhS0_>
    11a0:	04 c0       	rjmp	.+8      	; 0x11aa <_ZN17DallasTemperature8getTempCEPh+0x46>
    11a2:	60 e0       	ldi	r22, 0x00	; 0
    11a4:	70 e0       	ldi	r23, 0x00	; 0
    11a6:	8e ef       	ldi	r24, 0xFE	; 254
    11a8:	92 ec       	ldi	r25, 0xC2	; 194
    11aa:	29 96       	adiw	r28, 0x09	; 9
    11ac:	0f b6       	in	r0, 0x3f	; 63
    11ae:	f8 94       	cli
    11b0:	de bf       	out	0x3e, r29	; 62
    11b2:	0f be       	out	0x3f, r0	; 63
    11b4:	cd bf       	out	0x3d, r28	; 61
    11b6:	df 91       	pop	r29
    11b8:	cf 91       	pop	r28
    11ba:	1f 91       	pop	r17
    11bc:	0f 91       	pop	r16
    11be:	ff 90       	pop	r15
    11c0:	ef 90       	pop	r14
    11c2:	08 95       	ret

000011c4 <_ZN17DallasTemperature19isParasitePowerModeEv>:
    11c4:	fc 01       	movw	r30, r24
    11c6:	80 81       	ld	r24, Z
    11c8:	08 95       	ret

000011ca <_ZN17DallasTemperature12toFahrenheitEf>:
    11ca:	26 e6       	ldi	r18, 0x66	; 102
    11cc:	36 e6       	ldi	r19, 0x66	; 102
    11ce:	46 ee       	ldi	r20, 0xE6	; 230
    11d0:	5f e3       	ldi	r21, 0x3F	; 63
    11d2:	0e 94 2f 1f 	call	0x3e5e	; 0x3e5e <__mulsf3>
    11d6:	20 e0       	ldi	r18, 0x00	; 0
    11d8:	30 e0       	ldi	r19, 0x00	; 0
    11da:	40 e0       	ldi	r20, 0x00	; 0
    11dc:	52 e4       	ldi	r21, 0x42	; 66
    11de:	0e 94 5f 1d 	call	0x3abe	; 0x3abe <__addsf3>
    11e2:	08 95       	ret

000011e4 <_ZN7OneWire5resetEv>:
    11e4:	ff 92       	push	r15
    11e6:	0f 93       	push	r16
    11e8:	1f 93       	push	r17
    11ea:	cf 93       	push	r28
    11ec:	df 93       	push	r29
    11ee:	fc 01       	movw	r30, r24
    11f0:	00 81       	ld	r16, Z
    11f2:	c1 81       	ldd	r28, Z+1	; 0x01
    11f4:	d2 81       	ldd	r29, Z+2	; 0x02
    11f6:	f8 94       	cli
    11f8:	89 81       	ldd	r24, Y+1	; 0x01
    11fa:	f0 2e       	mov	r15, r16
    11fc:	f0 94       	com	r15
    11fe:	8f 21       	and	r24, r15
    1200:	89 83       	std	Y+1, r24	; 0x01
    1202:	78 94       	sei
    1204:	1d e7       	ldi	r17, 0x7D	; 125
    1206:	11 50       	subi	r17, 0x01	; 1
    1208:	29 f1       	breq	.+74     	; 0x1254 <_ZN7OneWire5resetEv+0x70>
    120a:	82 e0       	ldi	r24, 0x02	; 2
    120c:	90 e0       	ldi	r25, 0x00	; 0
    120e:	0e 94 3f 1c 	call	0x387e	; 0x387e <delayMicroseconds>
    1212:	88 81       	ld	r24, Y
    1214:	80 23       	and	r24, r16
    1216:	b9 f3       	breq	.-18     	; 0x1206 <_ZN7OneWire5resetEv+0x22>
    1218:	f8 94       	cli
    121a:	8a 81       	ldd	r24, Y+2	; 0x02
    121c:	8f 21       	and	r24, r15
    121e:	8a 83       	std	Y+2, r24	; 0x02
    1220:	89 81       	ldd	r24, Y+1	; 0x01
    1222:	80 2b       	or	r24, r16
    1224:	89 83       	std	Y+1, r24	; 0x01
    1226:	78 94       	sei
    1228:	80 ee       	ldi	r24, 0xE0	; 224
    122a:	91 e0       	ldi	r25, 0x01	; 1
    122c:	0e 94 3f 1c 	call	0x387e	; 0x387e <delayMicroseconds>
    1230:	f8 94       	cli
    1232:	89 81       	ldd	r24, Y+1	; 0x01
    1234:	f8 22       	and	r15, r24
    1236:	f9 82       	std	Y+1, r15	; 0x01
    1238:	86 e4       	ldi	r24, 0x46	; 70
    123a:	90 e0       	ldi	r25, 0x00	; 0
    123c:	0e 94 3f 1c 	call	0x387e	; 0x387e <delayMicroseconds>
    1240:	88 81       	ld	r24, Y
    1242:	08 23       	and	r16, r24
    1244:	11 e0       	ldi	r17, 0x01	; 1
    1246:	09 f0       	breq	.+2      	; 0x124a <_ZN7OneWire5resetEv+0x66>
    1248:	10 e0       	ldi	r17, 0x00	; 0
    124a:	78 94       	sei
    124c:	8a e9       	ldi	r24, 0x9A	; 154
    124e:	91 e0       	ldi	r25, 0x01	; 1
    1250:	0e 94 3f 1c 	call	0x387e	; 0x387e <delayMicroseconds>
    1254:	81 2f       	mov	r24, r17
    1256:	df 91       	pop	r29
    1258:	cf 91       	pop	r28
    125a:	1f 91       	pop	r17
    125c:	0f 91       	pop	r16
    125e:	ff 90       	pop	r15
    1260:	08 95       	ret

00001262 <_ZN7OneWire9write_bitEh>:
    1262:	1f 93       	push	r17
    1264:	cf 93       	push	r28
    1266:	df 93       	push	r29
    1268:	fc 01       	movw	r30, r24
    126a:	10 81       	ld	r17, Z
    126c:	c1 81       	ldd	r28, Z+1	; 0x01
    126e:	d2 81       	ldd	r29, Z+2	; 0x02
    1270:	81 2f       	mov	r24, r17
    1272:	80 95       	com	r24
    1274:	60 ff       	sbrs	r22, 0
    1276:	12 c0       	rjmp	.+36     	; 0x129c <_ZN7OneWire9write_bitEh+0x3a>
    1278:	f8 94       	cli
    127a:	9a 81       	ldd	r25, Y+2	; 0x02
    127c:	89 23       	and	r24, r25
    127e:	8a 83       	std	Y+2, r24	; 0x02
    1280:	89 81       	ldd	r24, Y+1	; 0x01
    1282:	81 2b       	or	r24, r17
    1284:	89 83       	std	Y+1, r24	; 0x01
    1286:	8a e0       	ldi	r24, 0x0A	; 10
    1288:	90 e0       	ldi	r25, 0x00	; 0
    128a:	0e 94 3f 1c 	call	0x387e	; 0x387e <delayMicroseconds>
    128e:	8a 81       	ldd	r24, Y+2	; 0x02
    1290:	18 2b       	or	r17, r24
    1292:	1a 83       	std	Y+2, r17	; 0x02
    1294:	78 94       	sei
    1296:	87 e3       	ldi	r24, 0x37	; 55
    1298:	90 e0       	ldi	r25, 0x00	; 0
    129a:	11 c0       	rjmp	.+34     	; 0x12be <_ZN7OneWire9write_bitEh+0x5c>
    129c:	f8 94       	cli
    129e:	9a 81       	ldd	r25, Y+2	; 0x02
    12a0:	89 23       	and	r24, r25
    12a2:	8a 83       	std	Y+2, r24	; 0x02
    12a4:	89 81       	ldd	r24, Y+1	; 0x01
    12a6:	81 2b       	or	r24, r17
    12a8:	89 83       	std	Y+1, r24	; 0x01
    12aa:	81 e4       	ldi	r24, 0x41	; 65
    12ac:	90 e0       	ldi	r25, 0x00	; 0
    12ae:	0e 94 3f 1c 	call	0x387e	; 0x387e <delayMicroseconds>
    12b2:	8a 81       	ldd	r24, Y+2	; 0x02
    12b4:	18 2b       	or	r17, r24
    12b6:	1a 83       	std	Y+2, r17	; 0x02
    12b8:	78 94       	sei
    12ba:	85 e0       	ldi	r24, 0x05	; 5
    12bc:	90 e0       	ldi	r25, 0x00	; 0
    12be:	df 91       	pop	r29
    12c0:	cf 91       	pop	r28
    12c2:	1f 91       	pop	r17
    12c4:	0c 94 3f 1c 	jmp	0x387e	; 0x387e <delayMicroseconds>

000012c8 <_ZN7OneWire8read_bitEv>:
    12c8:	0f 93       	push	r16
    12ca:	1f 93       	push	r17
    12cc:	cf 93       	push	r28
    12ce:	df 93       	push	r29
    12d0:	fc 01       	movw	r30, r24
    12d2:	10 81       	ld	r17, Z
    12d4:	c1 81       	ldd	r28, Z+1	; 0x01
    12d6:	d2 81       	ldd	r29, Z+2	; 0x02
    12d8:	f8 94       	cli
    12da:	89 81       	ldd	r24, Y+1	; 0x01
    12dc:	81 2b       	or	r24, r17
    12de:	89 83       	std	Y+1, r24	; 0x01
    12e0:	8a 81       	ldd	r24, Y+2	; 0x02
    12e2:	01 2f       	mov	r16, r17
    12e4:	00 95       	com	r16
    12e6:	80 23       	and	r24, r16
    12e8:	8a 83       	std	Y+2, r24	; 0x02
    12ea:	83 e0       	ldi	r24, 0x03	; 3
    12ec:	90 e0       	ldi	r25, 0x00	; 0
    12ee:	0e 94 3f 1c 	call	0x387e	; 0x387e <delayMicroseconds>
    12f2:	89 81       	ldd	r24, Y+1	; 0x01
    12f4:	08 23       	and	r16, r24
    12f6:	09 83       	std	Y+1, r16	; 0x01
    12f8:	8a e0       	ldi	r24, 0x0A	; 10
    12fa:	90 e0       	ldi	r25, 0x00	; 0
    12fc:	0e 94 3f 1c 	call	0x387e	; 0x387e <delayMicroseconds>
    1300:	c8 81       	ld	r28, Y
    1302:	78 94       	sei
    1304:	85 e3       	ldi	r24, 0x35	; 53
    1306:	90 e0       	ldi	r25, 0x00	; 0
    1308:	0e 94 3f 1c 	call	0x387e	; 0x387e <delayMicroseconds>
    130c:	1c 23       	and	r17, r28
    130e:	81 e0       	ldi	r24, 0x01	; 1
    1310:	09 f4       	brne	.+2      	; 0x1314 <_ZN7OneWire8read_bitEv+0x4c>
    1312:	80 e0       	ldi	r24, 0x00	; 0
    1314:	df 91       	pop	r29
    1316:	cf 91       	pop	r28
    1318:	1f 91       	pop	r17
    131a:	0f 91       	pop	r16
    131c:	08 95       	ret

0000131e <_ZN7OneWire5writeEhh>:
    131e:	cf 92       	push	r12
    1320:	df 92       	push	r13
    1322:	ef 92       	push	r14
    1324:	ff 92       	push	r15
    1326:	0f 93       	push	r16
    1328:	1f 93       	push	r17
    132a:	cf 93       	push	r28
    132c:	df 93       	push	r29
    132e:	1f 92       	push	r1
    1330:	cd b7       	in	r28, 0x3d	; 61
    1332:	de b7       	in	r29, 0x3e	; 62
    1334:	6c 01       	movw	r12, r24
    1336:	e6 2e       	mov	r14, r22
    1338:	08 e0       	ldi	r16, 0x08	; 8
    133a:	10 e0       	ldi	r17, 0x00	; 0
    133c:	ff 24       	eor	r15, r15
    133e:	f3 94       	inc	r15
    1340:	61 e0       	ldi	r22, 0x01	; 1
    1342:	8f 2d       	mov	r24, r15
    1344:	8e 21       	and	r24, r14
    1346:	09 f4       	brne	.+2      	; 0x134a <_ZN7OneWire5writeEhh+0x2c>
    1348:	60 e0       	ldi	r22, 0x00	; 0
    134a:	c6 01       	movw	r24, r12
    134c:	49 83       	std	Y+1, r20	; 0x01
    134e:	0e 94 31 09 	call	0x1262	; 0x1262 <_ZN7OneWire9write_bitEh>
    1352:	ff 0c       	add	r15, r15
    1354:	01 50       	subi	r16, 0x01	; 1
    1356:	11 09       	sbc	r17, r1
    1358:	49 81       	ldd	r20, Y+1	; 0x01
    135a:	01 15       	cp	r16, r1
    135c:	11 05       	cpc	r17, r1
    135e:	81 f7       	brne	.-32     	; 0x1340 <_ZN7OneWire5writeEhh+0x22>
    1360:	41 11       	cpse	r20, r1
    1362:	15 c0       	rjmp	.+42     	; 0x138e <_ZN7OneWire5writeEhh+0x70>
    1364:	f8 94       	cli
    1366:	d6 01       	movw	r26, r12
    1368:	11 96       	adiw	r26, 0x01	; 1
    136a:	ed 91       	ld	r30, X+
    136c:	fc 91       	ld	r31, X
    136e:	12 97       	sbiw	r26, 0x02	; 2
    1370:	91 81       	ldd	r25, Z+1	; 0x01
    1372:	8c 91       	ld	r24, X
    1374:	80 95       	com	r24
    1376:	89 23       	and	r24, r25
    1378:	81 83       	std	Z+1, r24	; 0x01
    137a:	11 96       	adiw	r26, 0x01	; 1
    137c:	ed 91       	ld	r30, X+
    137e:	fc 91       	ld	r31, X
    1380:	12 97       	sbiw	r26, 0x02	; 2
    1382:	92 81       	ldd	r25, Z+2	; 0x02
    1384:	8c 91       	ld	r24, X
    1386:	80 95       	com	r24
    1388:	89 23       	and	r24, r25
    138a:	82 83       	std	Z+2, r24	; 0x02
    138c:	78 94       	sei
    138e:	0f 90       	pop	r0
    1390:	df 91       	pop	r29
    1392:	cf 91       	pop	r28
    1394:	1f 91       	pop	r17
    1396:	0f 91       	pop	r16
    1398:	ff 90       	pop	r15
    139a:	ef 90       	pop	r14
    139c:	df 90       	pop	r13
    139e:	cf 90       	pop	r12
    13a0:	08 95       	ret

000013a2 <_ZN7OneWire4readEv>:
    13a2:	ef 92       	push	r14
    13a4:	ff 92       	push	r15
    13a6:	0f 93       	push	r16
    13a8:	1f 93       	push	r17
    13aa:	cf 93       	push	r28
    13ac:	df 93       	push	r29
    13ae:	7c 01       	movw	r14, r24
    13b0:	08 e0       	ldi	r16, 0x08	; 8
    13b2:	10 e0       	ldi	r17, 0x00	; 0
    13b4:	c0 e0       	ldi	r28, 0x00	; 0
    13b6:	d1 e0       	ldi	r29, 0x01	; 1
    13b8:	c7 01       	movw	r24, r14
    13ba:	0e 94 64 09 	call	0x12c8	; 0x12c8 <_ZN7OneWire8read_bitEv>
    13be:	81 11       	cpse	r24, r1
    13c0:	cd 2b       	or	r28, r29
    13c2:	dd 0f       	add	r29, r29
    13c4:	01 50       	subi	r16, 0x01	; 1
    13c6:	11 09       	sbc	r17, r1
    13c8:	b9 f7       	brne	.-18     	; 0x13b8 <_ZN7OneWire4readEv+0x16>
    13ca:	8c 2f       	mov	r24, r28
    13cc:	df 91       	pop	r29
    13ce:	cf 91       	pop	r28
    13d0:	1f 91       	pop	r17
    13d2:	0f 91       	pop	r16
    13d4:	ff 90       	pop	r15
    13d6:	ef 90       	pop	r14
    13d8:	08 95       	ret

000013da <_ZN7OneWire6selectEPKh>:
    13da:	cf 92       	push	r12
    13dc:	df 92       	push	r13
    13de:	ef 92       	push	r14
    13e0:	ff 92       	push	r15
    13e2:	0f 93       	push	r16
    13e4:	1f 93       	push	r17
    13e6:	cf 93       	push	r28
    13e8:	df 93       	push	r29
    13ea:	1f 92       	push	r1
    13ec:	cd b7       	in	r28, 0x3d	; 61
    13ee:	de b7       	in	r29, 0x3e	; 62
    13f0:	8c 01       	movw	r16, r24
    13f2:	f6 2e       	mov	r15, r22
    13f4:	40 e0       	ldi	r20, 0x00	; 0
    13f6:	65 e5       	ldi	r22, 0x55	; 85
    13f8:	79 83       	std	Y+1, r23	; 0x01
    13fa:	0e 94 8f 09 	call	0x131e	; 0x131e <_ZN7OneWire5writeEhh>
    13fe:	cf 2c       	mov	r12, r15
    1400:	79 81       	ldd	r23, Y+1	; 0x01
    1402:	d7 2e       	mov	r13, r23
    1404:	76 01       	movw	r14, r12
    1406:	88 e0       	ldi	r24, 0x08	; 8
    1408:	e8 0e       	add	r14, r24
    140a:	f1 1c       	adc	r15, r1
    140c:	f6 01       	movw	r30, r12
    140e:	61 91       	ld	r22, Z+
    1410:	6f 01       	movw	r12, r30
    1412:	40 e0       	ldi	r20, 0x00	; 0
    1414:	c8 01       	movw	r24, r16
    1416:	0e 94 8f 09 	call	0x131e	; 0x131e <_ZN7OneWire5writeEhh>
    141a:	ce 14       	cp	r12, r14
    141c:	df 04       	cpc	r13, r15
    141e:	b1 f7       	brne	.-20     	; 0x140c <_ZN7OneWire6selectEPKh+0x32>
    1420:	0f 90       	pop	r0
    1422:	df 91       	pop	r29
    1424:	cf 91       	pop	r28
    1426:	1f 91       	pop	r17
    1428:	0f 91       	pop	r16
    142a:	ff 90       	pop	r15
    142c:	ef 90       	pop	r14
    142e:	df 90       	pop	r13
    1430:	cf 90       	pop	r12
    1432:	08 95       	ret

00001434 <_ZN7OneWire4skipEv>:
    1434:	40 e0       	ldi	r20, 0x00	; 0
    1436:	6c ec       	ldi	r22, 0xCC	; 204
    1438:	0c 94 8f 09 	jmp	0x131e	; 0x131e <_ZN7OneWire5writeEhh>

0000143c <_ZN7OneWire12reset_searchEv>:
    143c:	fc 01       	movw	r30, r24
    143e:	13 86       	std	Z+11, r1	; 0x0b
    1440:	15 86       	std	Z+13, r1	; 0x0d
    1442:	14 86       	std	Z+12, r1	; 0x0c
    1444:	dc 01       	movw	r26, r24
    1446:	1b 96       	adiw	r26, 0x0b	; 11
    1448:	33 96       	adiw	r30, 0x03	; 3
    144a:	1e 92       	st	-X, r1
    144c:	ae 17       	cp	r26, r30
    144e:	bf 07       	cpc	r27, r31
    1450:	e1 f7       	brne	.-8      	; 0x144a <_ZN7OneWire12reset_searchEv+0xe>
    1452:	08 95       	ret

00001454 <_ZN7OneWireC1Eh>:
    1454:	0f 93       	push	r16
    1456:	1f 93       	push	r17
    1458:	cf 93       	push	r28
    145a:	8c 01       	movw	r16, r24
    145c:	c6 2f       	mov	r28, r22
    145e:	60 e0       	ldi	r22, 0x00	; 0
    1460:	8c 2f       	mov	r24, r28
    1462:	0e 94 c9 1c 	call	0x3992	; 0x3992 <pinMode>
    1466:	6c 2f       	mov	r22, r28
    1468:	70 e0       	ldi	r23, 0x00	; 0
    146a:	fb 01       	movw	r30, r22
    146c:	e2 53       	subi	r30, 0x32	; 50
    146e:	fe 4f       	sbci	r31, 0xFE	; 254
    1470:	e4 91       	lpm	r30, Z
    1472:	d8 01       	movw	r26, r16
    1474:	ec 93       	st	X, r30
    1476:	fb 01       	movw	r30, r22
    1478:	ee 51       	subi	r30, 0x1E	; 30
    147a:	fe 4f       	sbci	r31, 0xFE	; 254
    147c:	e4 91       	lpm	r30, Z
    147e:	f0 e0       	ldi	r31, 0x00	; 0
    1480:	ee 0f       	add	r30, r30
    1482:	ff 1f       	adc	r31, r31
    1484:	ea 50       	subi	r30, 0x0A	; 10
    1486:	fe 4f       	sbci	r31, 0xFE	; 254
    1488:	85 91       	lpm	r24, Z+
    148a:	94 91       	lpm	r25, Z
    148c:	f8 01       	movw	r30, r16
    148e:	92 83       	std	Z+2, r25	; 0x02
    1490:	81 83       	std	Z+1, r24	; 0x01
    1492:	c8 01       	movw	r24, r16
    1494:	cf 91       	pop	r28
    1496:	1f 91       	pop	r17
    1498:	0f 91       	pop	r16
    149a:	0c 94 1e 0a 	jmp	0x143c	; 0x143c <_ZN7OneWire12reset_searchEv>

0000149e <_ZN7OneWire6searchEPh>:
    149e:	af 92       	push	r10
    14a0:	bf 92       	push	r11
    14a2:	cf 92       	push	r12
    14a4:	df 92       	push	r13
    14a6:	ef 92       	push	r14
    14a8:	ff 92       	push	r15
    14aa:	0f 93       	push	r16
    14ac:	1f 93       	push	r17
    14ae:	cf 93       	push	r28
    14b0:	df 93       	push	r29
    14b2:	1f 92       	push	r1
    14b4:	cd b7       	in	r28, 0x3d	; 61
    14b6:	de b7       	in	r29, 0x3e	; 62
    14b8:	5c 01       	movw	r10, r24
    14ba:	d6 2e       	mov	r13, r22
    14bc:	e7 2e       	mov	r14, r23
    14be:	fc 01       	movw	r30, r24
    14c0:	85 85       	ldd	r24, Z+13	; 0x0d
    14c2:	81 11       	cpse	r24, r1
    14c4:	05 c0       	rjmp	.+10     	; 0x14d0 <_ZN7OneWire6searchEPh+0x32>
    14c6:	c5 01       	movw	r24, r10
    14c8:	0e 94 f2 08 	call	0x11e4	; 0x11e4 <_ZN7OneWire5resetEv>
    14cc:	81 11       	cpse	r24, r1
    14ce:	06 c0       	rjmp	.+12     	; 0x14dc <_ZN7OneWire6searchEPh+0x3e>
    14d0:	f5 01       	movw	r30, r10
    14d2:	13 86       	std	Z+11, r1	; 0x0b
    14d4:	15 86       	std	Z+13, r1	; 0x0d
    14d6:	14 86       	std	Z+12, r1	; 0x0c
    14d8:	80 e0       	ldi	r24, 0x00	; 0
    14da:	65 c0       	rjmp	.+202    	; 0x15a6 <_ZN7OneWire6searchEPh+0x108>
    14dc:	40 e0       	ldi	r20, 0x00	; 0
    14de:	60 ef       	ldi	r22, 0xF0	; 240
    14e0:	c5 01       	movw	r24, r10
    14e2:	0e 94 8f 09 	call	0x131e	; 0x131e <_ZN7OneWire5writeEhh>
    14e6:	01 e0       	ldi	r16, 0x01	; 1
    14e8:	f1 2c       	mov	r15, r1
    14ea:	c1 2c       	mov	r12, r1
    14ec:	11 e0       	ldi	r17, 0x01	; 1
    14ee:	c5 01       	movw	r24, r10
    14f0:	0e 94 64 09 	call	0x12c8	; 0x12c8 <_ZN7OneWire8read_bitEv>
    14f4:	68 2f       	mov	r22, r24
    14f6:	c5 01       	movw	r24, r10
    14f8:	69 83       	std	Y+1, r22	; 0x01
    14fa:	0e 94 64 09 	call	0x12c8	; 0x12c8 <_ZN7OneWire8read_bitEv>
    14fe:	69 81       	ldd	r22, Y+1	; 0x01
    1500:	61 30       	cpi	r22, 0x01	; 1
    1502:	19 f4       	brne	.+6      	; 0x150a <_ZN7OneWire6searchEPh+0x6c>
    1504:	81 30       	cpi	r24, 0x01	; 1
    1506:	b9 f4       	brne	.+46     	; 0x1536 <_ZN7OneWire6searchEPh+0x98>
    1508:	33 c0       	rjmp	.+102    	; 0x1570 <_ZN7OneWire6searchEPh+0xd2>
    150a:	4f 2d       	mov	r20, r15
    150c:	50 e0       	ldi	r21, 0x00	; 0
    150e:	68 13       	cpse	r22, r24
    1510:	1b c0       	rjmp	.+54     	; 0x1548 <_ZN7OneWire6searchEPh+0xaa>
    1512:	f5 01       	movw	r30, r10
    1514:	83 85       	ldd	r24, Z+11	; 0x0b
    1516:	18 17       	cp	r17, r24
    1518:	30 f4       	brcc	.+12     	; 0x1526 <_ZN7OneWire6searchEPh+0x88>
    151a:	e4 0f       	add	r30, r20
    151c:	f5 1f       	adc	r31, r21
    151e:	83 81       	ldd	r24, Z+3	; 0x03
    1520:	80 23       	and	r24, r16
    1522:	49 f4       	brne	.+18     	; 0x1536 <_ZN7OneWire6searchEPh+0x98>
    1524:	02 c0       	rjmp	.+4      	; 0x152a <_ZN7OneWire6searchEPh+0x8c>
    1526:	18 17       	cp	r17, r24
    1528:	31 f0       	breq	.+12     	; 0x1536 <_ZN7OneWire6searchEPh+0x98>
    152a:	60 e0       	ldi	r22, 0x00	; 0
    152c:	19 30       	cpi	r17, 0x09	; 9
    152e:	58 f4       	brcc	.+22     	; 0x1546 <_ZN7OneWire6searchEPh+0xa8>
    1530:	f5 01       	movw	r30, r10
    1532:	14 87       	std	Z+12, r17	; 0x0c
    1534:	08 c0       	rjmp	.+16     	; 0x1546 <_ZN7OneWire6searchEPh+0xa8>
    1536:	f5 01       	movw	r30, r10
    1538:	ef 0d       	add	r30, r15
    153a:	f1 1d       	adc	r31, r1
    153c:	83 81       	ldd	r24, Z+3	; 0x03
    153e:	80 2b       	or	r24, r16
    1540:	83 83       	std	Z+3, r24	; 0x03
    1542:	61 e0       	ldi	r22, 0x01	; 1
    1544:	09 c0       	rjmp	.+18     	; 0x1558 <_ZN7OneWire6searchEPh+0xba>
    1546:	c1 2e       	mov	r12, r17
    1548:	f5 01       	movw	r30, r10
    154a:	e4 0f       	add	r30, r20
    154c:	f5 1f       	adc	r31, r21
    154e:	93 81       	ldd	r25, Z+3	; 0x03
    1550:	80 2f       	mov	r24, r16
    1552:	80 95       	com	r24
    1554:	89 23       	and	r24, r25
    1556:	83 83       	std	Z+3, r24	; 0x03
    1558:	c5 01       	movw	r24, r10
    155a:	0e 94 31 09 	call	0x1262	; 0x1262 <_ZN7OneWire9write_bitEh>
    155e:	1f 5f       	subi	r17, 0xFF	; 255
    1560:	00 0f       	add	r16, r16
    1562:	11 f4       	brne	.+4      	; 0x1568 <_ZN7OneWire6searchEPh+0xca>
    1564:	f3 94       	inc	r15
    1566:	01 e0       	ldi	r16, 0x01	; 1
    1568:	f7 e0       	ldi	r31, 0x07	; 7
    156a:	ff 15       	cp	r31, r15
    156c:	08 f0       	brcs	.+2      	; 0x1570 <_ZN7OneWire6searchEPh+0xd2>
    156e:	bf cf       	rjmp	.-130    	; 0x14ee <_ZN7OneWire6searchEPh+0x50>
    1570:	11 34       	cpi	r17, 0x41	; 65
    1572:	08 f4       	brcc	.+2      	; 0x1576 <_ZN7OneWire6searchEPh+0xd8>
    1574:	ad cf       	rjmp	.-166    	; 0x14d0 <_ZN7OneWire6searchEPh+0x32>
    1576:	f5 01       	movw	r30, r10
    1578:	c3 86       	std	Z+11, r12	; 0x0b
    157a:	c1 10       	cpse	r12, r1
    157c:	02 c0       	rjmp	.+4      	; 0x1582 <_ZN7OneWire6searchEPh+0xe4>
    157e:	81 e0       	ldi	r24, 0x01	; 1
    1580:	85 87       	std	Z+13, r24	; 0x0d
    1582:	f5 01       	movw	r30, r10
    1584:	83 81       	ldd	r24, Z+3	; 0x03
    1586:	88 23       	and	r24, r24
    1588:	09 f4       	brne	.+2      	; 0x158c <_ZN7OneWire6searchEPh+0xee>
    158a:	a2 cf       	rjmp	.-188    	; 0x14d0 <_ZN7OneWire6searchEPh+0x32>
    158c:	d5 01       	movw	r26, r10
    158e:	13 96       	adiw	r26, 0x03	; 3
    1590:	ed 2d       	mov	r30, r13
    1592:	fe 2d       	mov	r31, r14
    1594:	95 01       	movw	r18, r10
    1596:	25 5f       	subi	r18, 0xF5	; 245
    1598:	3f 4f       	sbci	r19, 0xFF	; 255
    159a:	8d 91       	ld	r24, X+
    159c:	81 93       	st	Z+, r24
    159e:	a2 17       	cp	r26, r18
    15a0:	b3 07       	cpc	r27, r19
    15a2:	d9 f7       	brne	.-10     	; 0x159a <_ZN7OneWire6searchEPh+0xfc>
    15a4:	81 e0       	ldi	r24, 0x01	; 1
    15a6:	0f 90       	pop	r0
    15a8:	df 91       	pop	r29
    15aa:	cf 91       	pop	r28
    15ac:	1f 91       	pop	r17
    15ae:	0f 91       	pop	r16
    15b0:	ff 90       	pop	r15
    15b2:	ef 90       	pop	r14
    15b4:	df 90       	pop	r13
    15b6:	cf 90       	pop	r12
    15b8:	bf 90       	pop	r11
    15ba:	af 90       	pop	r10
    15bc:	08 95       	ret

000015be <_ZN7OneWire4crc8EPKhh>:
    15be:	dc 01       	movw	r26, r24
    15c0:	e0 e0       	ldi	r30, 0x00	; 0
    15c2:	61 50       	subi	r22, 0x01	; 1
    15c4:	38 f0       	brcs	.+14     	; 0x15d4 <_ZN7OneWire4crc8EPKhh+0x16>
    15c6:	8d 91       	ld	r24, X+
    15c8:	e8 27       	eor	r30, r24
    15ca:	f0 e0       	ldi	r31, 0x00	; 0
    15cc:	e6 54       	subi	r30, 0x46	; 70
    15ce:	ff 4f       	sbci	r31, 0xFF	; 255
    15d0:	e4 91       	lpm	r30, Z
    15d2:	f7 cf       	rjmp	.-18     	; 0x15c2 <_ZN7OneWire4crc8EPKhh+0x4>
    15d4:	8e 2f       	mov	r24, r30
    15d6:	08 95       	ret

000015d8 <_Z8TickFct1v>:
    15d8:	80 91 7a 05 	lds	r24, 0x057A
    15dc:	88 23       	and	r24, r24
    15de:	39 f0       	breq	.+14     	; 0x15ee <_Z8TickFct1v+0x16>
    15e0:	81 30       	cpi	r24, 0x01	; 1
    15e2:	69 f4       	brne	.+26     	; 0x15fe <_Z8TickFct1v+0x26>
    15e4:	60 e0       	ldi	r22, 0x00	; 0
    15e6:	82 e0       	ldi	r24, 0x02	; 2
    15e8:	0e 94 05 1d 	call	0x3a0a	; 0x3a0a <digitalWrite>
    15ec:	08 c0       	rjmp	.+16     	; 0x15fe <_Z8TickFct1v+0x26>
    15ee:	61 e0       	ldi	r22, 0x01	; 1
    15f0:	82 e0       	ldi	r24, 0x02	; 2
    15f2:	0e 94 05 1d 	call	0x3a0a	; 0x3a0a <digitalWrite>
    15f6:	81 e0       	ldi	r24, 0x01	; 1
    15f8:	80 93 7a 05 	sts	0x057A, r24
    15fc:	08 95       	ret
    15fe:	10 92 7a 05 	sts	0x057A, r1
    1602:	08 95       	ret

00001604 <_Z8i2c_initv>:
    1604:	44 9a       	sbi	0x08, 4	; 8
    1606:	45 9a       	sbi	0x08, 5	; 8
    1608:	81 e0       	ldi	r24, 0x01	; 1
    160a:	80 93 b9 00 	sts	0x00B9, r24
    160e:	80 e2       	ldi	r24, 0x20	; 32
    1610:	80 93 b8 00 	sts	0x00B8, r24
    1614:	84 e0       	ldi	r24, 0x04	; 4
    1616:	80 93 bc 00 	sts	0x00BC, r24
    161a:	08 95       	ret

0000161c <_Z19waitTransmissionI2Cv>:
    161c:	8f ef       	ldi	r24, 0xFF	; 255
    161e:	90 e0       	ldi	r25, 0x00	; 0
    1620:	20 91 bc 00 	lds	r18, 0x00BC
    1624:	27 fd       	sbrc	r18, 7
    1626:	0e c0       	rjmp	.+28     	; 0x1644 <_Z19waitTransmissionI2Cv+0x28>
    1628:	01 97       	sbiw	r24, 0x01	; 1
    162a:	d1 f7       	brne	.-12     	; 0x1620 <_Z19waitTransmissionI2Cv+0x4>
    162c:	10 92 bc 00 	sts	0x00BC, r1
    1630:	80 91 76 07 	lds	r24, 0x0776
    1634:	90 91 77 07 	lds	r25, 0x0777
    1638:	01 96       	adiw	r24, 0x01	; 1
    163a:	90 93 77 07 	sts	0x0777, r25
    163e:	80 93 76 07 	sts	0x0776, r24
    1642:	08 95       	ret
    1644:	08 95       	ret

00001646 <_Z13i2c_rep_starth>:
    1646:	0f 93       	push	r16
    1648:	1f 93       	push	r17
    164a:	cf 93       	push	r28
    164c:	df 93       	push	r29
    164e:	1f 92       	push	r1
    1650:	cd b7       	in	r28, 0x3d	; 61
    1652:	de b7       	in	r29, 0x3e	; 62
    1654:	0c eb       	ldi	r16, 0xBC	; 188
    1656:	10 e0       	ldi	r17, 0x00	; 0
    1658:	94 ea       	ldi	r25, 0xA4	; 164
    165a:	f8 01       	movw	r30, r16
    165c:	90 83       	st	Z, r25
    165e:	89 83       	std	Y+1, r24	; 0x01
    1660:	0e 94 0e 0b 	call	0x161c	; 0x161c <_Z19waitTransmissionI2Cv>
    1664:	89 81       	ldd	r24, Y+1	; 0x01
    1666:	80 93 bb 00 	sts	0x00BB, r24
    166a:	84 e8       	ldi	r24, 0x84	; 132
    166c:	f8 01       	movw	r30, r16
    166e:	80 83       	st	Z, r24
    1670:	0f 90       	pop	r0
    1672:	df 91       	pop	r29
    1674:	cf 91       	pop	r28
    1676:	1f 91       	pop	r17
    1678:	0f 91       	pop	r16
    167a:	0c 94 0e 0b 	jmp	0x161c	; 0x161c <_Z19waitTransmissionI2Cv>

0000167e <_Z9i2c_writeh>:
    167e:	80 93 bb 00 	sts	0x00BB, r24
    1682:	84 e8       	ldi	r24, 0x84	; 132
    1684:	80 93 bc 00 	sts	0x00BC, r24
    1688:	0c 94 0e 0b 	jmp	0x161c	; 0x161c <_Z19waitTransmissionI2Cv>

0000168c <_Z12i2c_writeReghhh>:
    168c:	cf 93       	push	r28
    168e:	df 93       	push	r29
    1690:	00 d0       	rcall	.+0      	; 0x1692 <_Z12i2c_writeReghhh+0x6>
    1692:	cd b7       	in	r28, 0x3d	; 61
    1694:	de b7       	in	r29, 0x3e	; 62
    1696:	88 0f       	add	r24, r24
    1698:	4a 83       	std	Y+2, r20	; 0x02
    169a:	69 83       	std	Y+1, r22	; 0x01
    169c:	0e 94 23 0b 	call	0x1646	; 0x1646 <_Z13i2c_rep_starth>
    16a0:	69 81       	ldd	r22, Y+1	; 0x01
    16a2:	86 2f       	mov	r24, r22
    16a4:	0e 94 3f 0b 	call	0x167e	; 0x167e <_Z9i2c_writeh>
    16a8:	4a 81       	ldd	r20, Y+2	; 0x02
    16aa:	84 2f       	mov	r24, r20
    16ac:	0e 94 3f 0b 	call	0x167e	; 0x167e <_Z9i2c_writeh>
    16b0:	84 e9       	ldi	r24, 0x94	; 148
    16b2:	80 93 bc 00 	sts	0x00BC, r24
    16b6:	0f 90       	pop	r0
    16b8:	0f 90       	pop	r0
    16ba:	df 91       	pop	r29
    16bc:	cf 91       	pop	r28
    16be:	08 95       	ret

000016c0 <_Z17i2c_OLED_send_cmdh>:
    16c0:	92 e0       	ldi	r25, 0x02	; 2
    16c2:	90 93 b8 00 	sts	0x00B8, r25
    16c6:	48 2f       	mov	r20, r24
    16c8:	60 e8       	ldi	r22, 0x80	; 128
    16ca:	8c e3       	ldi	r24, 0x3C	; 60
    16cc:	0c 94 46 0b 	jmp	0x168c	; 0x168c <_Z12i2c_writeReghhh>

000016d0 <_Z13i2c_OLED_initv>:
    16d0:	8e ea       	ldi	r24, 0xAE	; 174
    16d2:	0e 94 60 0b 	call	0x16c0	; 0x16c0 <_Z17i2c_OLED_send_cmdh>
    16d6:	8e e2       	ldi	r24, 0x2E	; 46
    16d8:	0e 94 60 0b 	call	0x16c0	; 0x16c0 <_Z17i2c_OLED_send_cmdh>
    16dc:	84 ea       	ldi	r24, 0xA4	; 164
    16de:	0e 94 60 0b 	call	0x16c0	; 0x16c0 <_Z17i2c_OLED_send_cmdh>
    16e2:	62 e3       	ldi	r22, 0x32	; 50
    16e4:	70 e0       	ldi	r23, 0x00	; 0
    16e6:	80 e0       	ldi	r24, 0x00	; 0
    16e8:	90 e0       	ldi	r25, 0x00	; 0
    16ea:	0e 94 17 1c 	call	0x382e	; 0x382e <delay>
    16ee:	80 e2       	ldi	r24, 0x20	; 32
    16f0:	0e 94 60 0b 	call	0x16c0	; 0x16c0 <_Z17i2c_OLED_send_cmdh>
    16f4:	82 e0       	ldi	r24, 0x02	; 2
    16f6:	0e 94 60 0b 	call	0x16c0	; 0x16c0 <_Z17i2c_OLED_send_cmdh>
    16fa:	81 ea       	ldi	r24, 0xA1	; 161
    16fc:	0e 94 60 0b 	call	0x16c0	; 0x16c0 <_Z17i2c_OLED_send_cmdh>
    1700:	88 ec       	ldi	r24, 0xC8	; 200
    1702:	0e 94 60 0b 	call	0x16c0	; 0x16c0 <_Z17i2c_OLED_send_cmdh>
    1706:	86 ea       	ldi	r24, 0xA6	; 166
    1708:	0e 94 60 0b 	call	0x16c0	; 0x16c0 <_Z17i2c_OLED_send_cmdh>
    170c:	81 e8       	ldi	r24, 0x81	; 129
    170e:	0e 94 60 0b 	call	0x16c0	; 0x16c0 <_Z17i2c_OLED_send_cmdh>
    1712:	8f ef       	ldi	r24, 0xFF	; 255
    1714:	0e 94 60 0b 	call	0x16c0	; 0x16c0 <_Z17i2c_OLED_send_cmdh>
    1718:	64 e1       	ldi	r22, 0x14	; 20
    171a:	70 e0       	ldi	r23, 0x00	; 0
    171c:	80 e0       	ldi	r24, 0x00	; 0
    171e:	90 e0       	ldi	r25, 0x00	; 0
    1720:	0e 94 17 1c 	call	0x382e	; 0x382e <delay>
    1724:	8f ea       	ldi	r24, 0xAF	; 175
    1726:	0e 94 60 0b 	call	0x16c0	; 0x16c0 <_Z17i2c_OLED_send_cmdh>
    172a:	64 e1       	ldi	r22, 0x14	; 20
    172c:	70 e0       	ldi	r23, 0x00	; 0
    172e:	80 e0       	ldi	r24, 0x00	; 0
    1730:	90 e0       	ldi	r25, 0x00	; 0
    1732:	0c 94 17 1c 	jmp	0x382e	; 0x382e <delay>

00001736 <_Z5setXYhh>:
    1736:	cf 93       	push	r28
    1738:	c6 2f       	mov	r28, r22
    173a:	80 55       	subi	r24, 0x50	; 80
    173c:	0e 94 60 0b 	call	0x16c0	; 0x16c0 <_Z17i2c_OLED_send_cmdh>
    1740:	8c 2f       	mov	r24, r28
    1742:	88 0f       	add	r24, r24
    1744:	88 0f       	add	r24, r24
    1746:	88 0f       	add	r24, r24
    1748:	88 70       	andi	r24, 0x08	; 8
    174a:	0e 94 60 0b 	call	0x16c0	; 0x16c0 <_Z17i2c_OLED_send_cmdh>
    174e:	28 e0       	ldi	r18, 0x08	; 8
    1750:	c2 9f       	mul	r28, r18
    1752:	c0 01       	movw	r24, r0
    1754:	11 24       	eor	r1, r1
    1756:	24 e0       	ldi	r18, 0x04	; 4
    1758:	95 95       	asr	r25
    175a:	87 95       	ror	r24
    175c:	2a 95       	dec	r18
    175e:	e1 f7       	brne	.-8      	; 0x1758 <_Z5setXYhh+0x22>
    1760:	8f 70       	andi	r24, 0x0F	; 15
    1762:	80 5f       	subi	r24, 0xF0	; 240
    1764:	cf 91       	pop	r28
    1766:	0c 94 60 0b 	jmp	0x16c0	; 0x16c0 <_Z17i2c_OLED_send_cmdh>

0000176a <_Z18i2c_OLED_send_byteh>:
    176a:	92 e0       	ldi	r25, 0x02	; 2
    176c:	90 93 b8 00 	sts	0x00B8, r25
    1770:	48 2f       	mov	r20, r24
    1772:	60 e4       	ldi	r22, 0x40	; 64
    1774:	8c e3       	ldi	r24, 0x3C	; 60
    1776:	0c 94 46 0b 	jmp	0x168c	; 0x168c <_Z12i2c_writeReghhh>

0000177a <_Z7sendStrPKc>:
    177a:	0f 93       	push	r16
    177c:	1f 93       	push	r17
    177e:	cf 93       	push	r28
    1780:	df 93       	push	r29
    1782:	ec 01       	movw	r28, r24
    1784:	88 81       	ld	r24, Y
    1786:	88 23       	and	r24, r24
    1788:	d9 f0       	breq	.+54     	; 0x17c0 <_Z7sendStrPKc+0x46>
    178a:	00 e0       	ldi	r16, 0x00	; 0
    178c:	10 e0       	ldi	r17, 0x00	; 0
    178e:	88 81       	ld	r24, Y
    1790:	f8 01       	movw	r30, r16
    1792:	98 e0       	ldi	r25, 0x08	; 8
    1794:	89 9f       	mul	r24, r25
    1796:	e0 0d       	add	r30, r0
    1798:	f1 1d       	adc	r31, r1
    179a:	11 24       	eor	r1, r1
    179c:	ee 5f       	subi	r30, 0xFE	; 254
    179e:	ff 4f       	sbci	r31, 0xFF	; 255
    17a0:	80 81       	ld	r24, Z
    17a2:	0e 94 b5 0b 	call	0x176a	; 0x176a <_Z18i2c_OLED_send_byteh>
    17a6:	61 e0       	ldi	r22, 0x01	; 1
    17a8:	70 e0       	ldi	r23, 0x00	; 0
    17aa:	80 e0       	ldi	r24, 0x00	; 0
    17ac:	90 e0       	ldi	r25, 0x00	; 0
    17ae:	0e 94 17 1c 	call	0x382e	; 0x382e <delay>
    17b2:	0f 5f       	subi	r16, 0xFF	; 255
    17b4:	1f 4f       	sbci	r17, 0xFF	; 255
    17b6:	08 30       	cpi	r16, 0x08	; 8
    17b8:	11 05       	cpc	r17, r1
    17ba:	49 f7       	brne	.-46     	; 0x178e <_Z7sendStrPKc+0x14>
    17bc:	21 96       	adiw	r28, 0x01	; 1
    17be:	e2 cf       	rjmp	.-60     	; 0x1784 <_Z7sendStrPKc+0xa>
    17c0:	df 91       	pop	r29
    17c2:	cf 91       	pop	r28
    17c4:	1f 91       	pop	r17
    17c6:	0f 91       	pop	r16
    17c8:	08 95       	ret

000017ca <_Z12TickFct_timev>:
    17ca:	0f 93       	push	r16
    17cc:	1f 93       	push	r17
    17ce:	cf 93       	push	r28
    17d0:	df 93       	push	r29
    17d2:	cd b7       	in	r28, 0x3d	; 61
    17d4:	de b7       	in	r29, 0x3e	; 62
    17d6:	2a 97       	sbiw	r28, 0x0a	; 10
    17d8:	0f b6       	in	r0, 0x3f	; 63
    17da:	f8 94       	cli
    17dc:	de bf       	out	0x3e, r29	; 62
    17de:	0f be       	out	0x3f, r0	; 63
    17e0:	cd bf       	out	0x3d, r28	; 61
    17e2:	80 91 77 05 	lds	r24, 0x0577
    17e6:	81 11       	cpse	r24, r1
    17e8:	37 c0       	rjmp	.+110    	; 0x1858 <_Z12TickFct_timev+0x8e>
    17ea:	80 91 65 07 	lds	r24, 0x0765
    17ee:	8f 93       	push	r24
    17f0:	80 91 64 07 	lds	r24, 0x0764
    17f4:	8f 93       	push	r24
    17f6:	89 e3       	ldi	r24, 0x39	; 57
    17f8:	94 e0       	ldi	r25, 0x04	; 4
    17fa:	9f 93       	push	r25
    17fc:	8f 93       	push	r24
    17fe:	8e 01       	movw	r16, r28
    1800:	0f 5f       	subi	r16, 0xFF	; 255
    1802:	1f 4f       	sbci	r17, 0xFF	; 255
    1804:	1f 93       	push	r17
    1806:	0f 93       	push	r16
    1808:	0e 94 cd 20 	call	0x419a	; 0x419a <sprintf>
    180c:	61 e0       	ldi	r22, 0x01	; 1
    180e:	87 e0       	ldi	r24, 0x07	; 7
    1810:	0e 94 9b 0b 	call	0x1736	; 0x1736 <_Z5setXYhh>
    1814:	c8 01       	movw	r24, r16
    1816:	0e 94 bd 0b 	call	0x177a	; 0x177a <_Z7sendStrPKc>
    181a:	80 91 64 07 	lds	r24, 0x0764
    181e:	90 91 65 07 	lds	r25, 0x0765
    1822:	01 96       	adiw	r24, 0x01	; 1
    1824:	90 93 65 07 	sts	0x0765, r25
    1828:	80 93 64 07 	sts	0x0764, r24
    182c:	0f 90       	pop	r0
    182e:	0f 90       	pop	r0
    1830:	0f 90       	pop	r0
    1832:	0f 90       	pop	r0
    1834:	0f 90       	pop	r0
    1836:	0f 90       	pop	r0
    1838:	8a 30       	cpi	r24, 0x0A	; 10
    183a:	91 05       	cpc	r25, r1
    183c:	31 f4       	brne	.+12     	; 0x184a <_Z12TickFct_timev+0x80>
    183e:	80 91 68 06 	lds	r24, 0x0668
    1842:	8f 5f       	subi	r24, 0xFF	; 255
    1844:	80 93 68 06 	sts	0x0668, r24
    1848:	09 c0       	rjmp	.+18     	; 0x185c <_Z12TickFct_timev+0x92>
    184a:	84 36       	cpi	r24, 0x64	; 100
    184c:	91 05       	cpc	r25, r1
    184e:	b9 f3       	breq	.-18     	; 0x183e <_Z12TickFct_timev+0x74>
    1850:	88 3e       	cpi	r24, 0xE8	; 232
    1852:	93 40       	sbci	r25, 0x03	; 3
    1854:	19 f4       	brne	.+6      	; 0x185c <_Z12TickFct_timev+0x92>
    1856:	f3 cf       	rjmp	.-26     	; 0x183e <_Z12TickFct_timev+0x74>
    1858:	10 92 77 05 	sts	0x0577, r1
    185c:	2a 96       	adiw	r28, 0x0a	; 10
    185e:	0f b6       	in	r0, 0x3f	; 63
    1860:	f8 94       	cli
    1862:	de bf       	out	0x3e, r29	; 62
    1864:	0f be       	out	0x3f, r0	; 63
    1866:	cd bf       	out	0x3d, r28	; 61
    1868:	df 91       	pop	r29
    186a:	cf 91       	pop	r28
    186c:	1f 91       	pop	r17
    186e:	0f 91       	pop	r16
    1870:	08 95       	ret

00001872 <_Z13clear_displayv>:
    1872:	cf 93       	push	r28
    1874:	df 93       	push	r29
    1876:	c0 e0       	ldi	r28, 0x00	; 0
    1878:	60 e0       	ldi	r22, 0x00	; 0
    187a:	8c 2f       	mov	r24, r28
    187c:	0e 94 9b 0b 	call	0x1736	; 0x1736 <_Z5setXYhh>
    1880:	d0 e0       	ldi	r29, 0x00	; 0
    1882:	80 e0       	ldi	r24, 0x00	; 0
    1884:	0e 94 b5 0b 	call	0x176a	; 0x176a <_Z18i2c_OLED_send_byteh>
    1888:	df 5f       	subi	r29, 0xFF	; 255
    188a:	d0 38       	cpi	r29, 0x80	; 128
    188c:	d1 f7       	brne	.-12     	; 0x1882 <_Z13clear_displayv+0x10>
    188e:	cf 5f       	subi	r28, 0xFF	; 255
    1890:	c8 30       	cpi	r28, 0x08	; 8
    1892:	91 f7       	brne	.-28     	; 0x1878 <_Z13clear_displayv+0x6>
    1894:	df 91       	pop	r29
    1896:	cf 91       	pop	r28
    1898:	08 95       	ret

0000189a <_Z15TickFct_buttonsv>:
    189a:	85 e0       	ldi	r24, 0x05	; 5
    189c:	0e 94 35 1d 	call	0x3a6a	; 0x3a6a <digitalRead>
    18a0:	21 e0       	ldi	r18, 0x01	; 1
    18a2:	30 e0       	ldi	r19, 0x00	; 0
    18a4:	89 2b       	or	r24, r25
    18a6:	11 f0       	breq	.+4      	; 0x18ac <_Z15TickFct_buttonsv+0x12>
    18a8:	20 e0       	ldi	r18, 0x00	; 0
    18aa:	30 e0       	ldi	r19, 0x00	; 0
    18ac:	30 93 76 05 	sts	0x0576, r19
    18b0:	20 93 75 05 	sts	0x0575, r18
    18b4:	88 e0       	ldi	r24, 0x08	; 8
    18b6:	0e 94 35 1d 	call	0x3a6a	; 0x3a6a <digitalRead>
    18ba:	21 e0       	ldi	r18, 0x01	; 1
    18bc:	89 2b       	or	r24, r25
    18be:	09 f0       	breq	.+2      	; 0x18c2 <_Z15TickFct_buttonsv+0x28>
    18c0:	20 e0       	ldi	r18, 0x00	; 0
    18c2:	82 2f       	mov	r24, r18
    18c4:	90 e0       	ldi	r25, 0x00	; 0
    18c6:	90 93 74 05 	sts	0x0574, r25
    18ca:	80 93 73 05 	sts	0x0573, r24
    18ce:	80 91 72 05 	lds	r24, 0x0572
    18d2:	81 30       	cpi	r24, 0x01	; 1
    18d4:	91 f1       	breq	.+100    	; 0x193a <_Z15TickFct_buttonsv+0xa0>
    18d6:	30 f0       	brcs	.+12     	; 0x18e4 <_Z15TickFct_buttonsv+0x4a>
    18d8:	82 30       	cpi	r24, 0x02	; 2
    18da:	09 f4       	brne	.+2      	; 0x18de <_Z15TickFct_buttonsv+0x44>
    18dc:	58 c0       	rjmp	.+176    	; 0x198e <_Z15TickFct_buttonsv+0xf4>
    18de:	83 30       	cpi	r24, 0x03	; 3
    18e0:	99 f0       	breq	.+38     	; 0x1908 <_Z15TickFct_buttonsv+0x6e>
    18e2:	68 c0       	rjmp	.+208    	; 0x19b4 <_Z15TickFct_buttonsv+0x11a>
    18e4:	80 91 75 05 	lds	r24, 0x0575
    18e8:	90 91 76 05 	lds	r25, 0x0576
    18ec:	89 2b       	or	r24, r25
    18ee:	39 f0       	breq	.+14     	; 0x18fe <_Z15TickFct_buttonsv+0x64>
    18f0:	80 91 78 05 	lds	r24, 0x0578
    18f4:	81 30       	cpi	r24, 0x01	; 1
    18f6:	19 f0       	breq	.+6      	; 0x18fe <_Z15TickFct_buttonsv+0x64>
    18f8:	81 e0       	ldi	r24, 0x01	; 1
    18fa:	80 93 72 05 	sts	0x0572, r24
    18fe:	22 23       	and	r18, r18
    1900:	09 f4       	brne	.+2      	; 0x1904 <_Z15TickFct_buttonsv+0x6a>
    1902:	5a c0       	rjmp	.+180    	; 0x19b8 <_Z15TickFct_buttonsv+0x11e>
    1904:	83 e0       	ldi	r24, 0x03	; 3
    1906:	16 c0       	rjmp	.+44     	; 0x1934 <_Z15TickFct_buttonsv+0x9a>
    1908:	80 91 78 05 	lds	r24, 0x0578
    190c:	81 30       	cpi	r24, 0x01	; 1
    190e:	31 f4       	brne	.+12     	; 0x191c <_Z15TickFct_buttonsv+0x82>
    1910:	92 e0       	ldi	r25, 0x02	; 2
    1912:	90 93 78 05 	sts	0x0578, r25
    1916:	80 93 79 05 	sts	0x0579, r24
    191a:	02 c0       	rjmp	.+4      	; 0x1920 <_Z15TickFct_buttonsv+0x86>
    191c:	10 92 78 05 	sts	0x0578, r1
    1920:	0e 94 39 0c 	call	0x1872	; 0x1872 <_Z13clear_displayv>
    1924:	80 91 73 05 	lds	r24, 0x0573
    1928:	90 91 74 05 	lds	r25, 0x0574
    192c:	89 2b       	or	r24, r25
    192e:	09 f4       	brne	.+2      	; 0x1932 <_Z15TickFct_buttonsv+0x98>
    1930:	41 c0       	rjmp	.+130    	; 0x19b4 <_Z15TickFct_buttonsv+0x11a>
    1932:	82 e0       	ldi	r24, 0x02	; 2
    1934:	80 93 72 05 	sts	0x0572, r24
    1938:	08 95       	ret
    193a:	80 93 79 05 	sts	0x0579, r24
    193e:	80 91 78 05 	lds	r24, 0x0578
    1942:	84 30       	cpi	r24, 0x04	; 4
    1944:	61 f4       	brne	.+24     	; 0x195e <_Z15TickFct_buttonsv+0xc4>
    1946:	83 e0       	ldi	r24, 0x03	; 3
    1948:	80 93 78 05 	sts	0x0578, r24
    194c:	61 e0       	ldi	r22, 0x01	; 1
    194e:	81 e0       	ldi	r24, 0x01	; 1
    1950:	0e 94 9b 0b 	call	0x1736	; 0x1736 <_Z5setXYhh>
    1954:	8c e3       	ldi	r24, 0x3C	; 60
    1956:	94 e0       	ldi	r25, 0x04	; 4
    1958:	0e 94 bd 0b 	call	0x177a	; 0x177a <_Z7sendStrPKc>
    195c:	13 c0       	rjmp	.+38     	; 0x1984 <_Z15TickFct_buttonsv+0xea>
    195e:	61 e0       	ldi	r22, 0x01	; 1
    1960:	81 e0       	ldi	r24, 0x01	; 1
    1962:	0e 94 9b 0b 	call	0x1736	; 0x1736 <_Z5setXYhh>
    1966:	82 e2       	ldi	r24, 0x22	; 34
    1968:	95 e0       	ldi	r25, 0x05	; 5
    196a:	0e 94 bd 0b 	call	0x177a	; 0x177a <_Z7sendStrPKc>
    196e:	61 e0       	ldi	r22, 0x01	; 1
    1970:	81 e0       	ldi	r24, 0x01	; 1
    1972:	0e 94 9b 0b 	call	0x1736	; 0x1736 <_Z5setXYhh>
    1976:	89 e4       	ldi	r24, 0x49	; 73
    1978:	94 e0       	ldi	r25, 0x04	; 4
    197a:	0e 94 bd 0b 	call	0x177a	; 0x177a <_Z7sendStrPKc>
    197e:	84 e0       	ldi	r24, 0x04	; 4
    1980:	80 93 78 05 	sts	0x0578, r24
    1984:	80 91 75 05 	lds	r24, 0x0575
    1988:	90 91 76 05 	lds	r25, 0x0576
    198c:	cf cf       	rjmp	.-98     	; 0x192c <_Z15TickFct_buttonsv+0x92>
    198e:	80 91 75 05 	lds	r24, 0x0575
    1992:	90 91 76 05 	lds	r25, 0x0576
    1996:	89 2b       	or	r24, r25
    1998:	11 f4       	brne	.+4      	; 0x199e <_Z15TickFct_buttonsv+0x104>
    199a:	10 92 72 05 	sts	0x0572, r1
    199e:	61 e0       	ldi	r22, 0x01	; 1
    19a0:	82 e0       	ldi	r24, 0x02	; 2
    19a2:	0e 94 05 1d 	call	0x3a0a	; 0x3a0a <digitalWrite>
    19a6:	80 91 73 05 	lds	r24, 0x0573
    19aa:	90 91 74 05 	lds	r25, 0x0574
    19ae:	89 2b       	or	r24, r25
    19b0:	09 f0       	breq	.+2      	; 0x19b4 <_Z15TickFct_buttonsv+0x11a>
    19b2:	08 95       	ret
    19b4:	10 92 72 05 	sts	0x0572, r1
    19b8:	08 95       	ret

000019ba <_Z14float_to_uCharf>:
    19ba:	5f 92       	push	r5
    19bc:	6f 92       	push	r6
    19be:	7f 92       	push	r7
    19c0:	8f 92       	push	r8
    19c2:	9f 92       	push	r9
    19c4:	af 92       	push	r10
    19c6:	bf 92       	push	r11
    19c8:	cf 92       	push	r12
    19ca:	df 92       	push	r13
    19cc:	ef 92       	push	r14
    19ce:	ff 92       	push	r15
    19d0:	0f 93       	push	r16
    19d2:	1f 93       	push	r17
    19d4:	cf 93       	push	r28
    19d6:	df 93       	push	r29
    19d8:	cd b7       	in	r28, 0x3d	; 61
    19da:	de b7       	in	r29, 0x3e	; 62
    19dc:	2a 97       	sbiw	r28, 0x0a	; 10
    19de:	0f b6       	in	r0, 0x3f	; 63
    19e0:	f8 94       	cli
    19e2:	de bf       	out	0x3e, r29	; 62
    19e4:	0f be       	out	0x3f, r0	; 63
    19e6:	cd bf       	out	0x3d, r28	; 61
    19e8:	3b 01       	movw	r6, r22
    19ea:	4c 01       	movw	r8, r24
    19ec:	20 e0       	ldi	r18, 0x00	; 0
    19ee:	30 e0       	ldi	r19, 0x00	; 0
    19f0:	48 ec       	ldi	r20, 0xC8	; 200
    19f2:	52 e4       	ldi	r21, 0x42	; 66
    19f4:	0e 94 d0 1d 	call	0x3ba0	; 0x3ba0 <__divsf3>
    19f8:	20 e0       	ldi	r18, 0x00	; 0
    19fa:	30 e0       	ldi	r19, 0x00	; 0
    19fc:	40 e8       	ldi	r20, 0x80	; 128
    19fe:	5f e3       	ldi	r21, 0x3F	; 63
    1a00:	0e 94 2a 1f 	call	0x3e54	; 0x3e54 <__gesf2>
    1a04:	73 01       	movw	r14, r6
    1a06:	84 01       	movw	r16, r8
    1a08:	87 fd       	sbrc	r24, 7
    1a0a:	1e c0       	rjmp	.+60     	; 0x1a48 <_Z14float_to_uCharf+0x8e>
    1a0c:	d1 2c       	mov	r13, r1
    1a0e:	20 e0       	ldi	r18, 0x00	; 0
    1a10:	30 e0       	ldi	r19, 0x00	; 0
    1a12:	48 ec       	ldi	r20, 0xC8	; 200
    1a14:	52 e4       	ldi	r21, 0x42	; 66
    1a16:	b7 01       	movw	r22, r14
    1a18:	c8 01       	movw	r24, r16
    1a1a:	0e 94 2a 1f 	call	0x3e54	; 0x3e54 <__gesf2>
    1a1e:	18 16       	cp	r1, r24
    1a20:	64 f4       	brge	.+24     	; 0x1a3a <_Z14float_to_uCharf+0x80>
    1a22:	20 e0       	ldi	r18, 0x00	; 0
    1a24:	30 e0       	ldi	r19, 0x00	; 0
    1a26:	48 ec       	ldi	r20, 0xC8	; 200
    1a28:	52 e4       	ldi	r21, 0x42	; 66
    1a2a:	b7 01       	movw	r22, r14
    1a2c:	c8 01       	movw	r24, r16
    1a2e:	0e 94 5e 1d 	call	0x3abc	; 0x3abc <__subsf3>
    1a32:	7b 01       	movw	r14, r22
    1a34:	8c 01       	movw	r16, r24
    1a36:	d3 94       	inc	r13
    1a38:	ea cf       	rjmp	.-44     	; 0x1a0e <_Z14float_to_uCharf+0x54>
    1a3a:	80 e3       	ldi	r24, 0x30	; 48
    1a3c:	8d 0d       	add	r24, r13
    1a3e:	89 83       	std	Y+1, r24	; 0x01
    1a40:	cc 24       	eor	r12, r12
    1a42:	c3 94       	inc	r12
    1a44:	d1 2c       	mov	r13, r1
    1a46:	02 c0       	rjmp	.+4      	; 0x1a4c <_Z14float_to_uCharf+0x92>
    1a48:	c1 2c       	mov	r12, r1
    1a4a:	d1 2c       	mov	r13, r1
    1a4c:	20 e0       	ldi	r18, 0x00	; 0
    1a4e:	30 e0       	ldi	r19, 0x00	; 0
    1a50:	40 e2       	ldi	r20, 0x20	; 32
    1a52:	51 e4       	ldi	r21, 0x41	; 65
    1a54:	b7 01       	movw	r22, r14
    1a56:	c8 01       	movw	r24, r16
    1a58:	0e 94 d0 1d 	call	0x3ba0	; 0x3ba0 <__divsf3>
    1a5c:	20 e0       	ldi	r18, 0x00	; 0
    1a5e:	30 e0       	ldi	r19, 0x00	; 0
    1a60:	40 e8       	ldi	r20, 0x80	; 128
    1a62:	5f e3       	ldi	r21, 0x3F	; 63
    1a64:	0e 94 2a 1f 	call	0x3e54	; 0x3e54 <__gesf2>
    1a68:	87 fd       	sbrc	r24, 7
    1a6a:	1d c0       	rjmp	.+58     	; 0x1aa6 <_Z14float_to_uCharf+0xec>
    1a6c:	b1 2c       	mov	r11, r1
    1a6e:	20 e0       	ldi	r18, 0x00	; 0
    1a70:	30 e0       	ldi	r19, 0x00	; 0
    1a72:	40 e2       	ldi	r20, 0x20	; 32
    1a74:	51 e4       	ldi	r21, 0x41	; 65
    1a76:	b7 01       	movw	r22, r14
    1a78:	c8 01       	movw	r24, r16
    1a7a:	0e 94 2a 1f 	call	0x3e54	; 0x3e54 <__gesf2>
    1a7e:	87 fd       	sbrc	r24, 7
    1a80:	0c c0       	rjmp	.+24     	; 0x1a9a <_Z14float_to_uCharf+0xe0>
    1a82:	20 e0       	ldi	r18, 0x00	; 0
    1a84:	30 e0       	ldi	r19, 0x00	; 0
    1a86:	40 e2       	ldi	r20, 0x20	; 32
    1a88:	51 e4       	ldi	r21, 0x41	; 65
    1a8a:	b7 01       	movw	r22, r14
    1a8c:	c8 01       	movw	r24, r16
    1a8e:	0e 94 5e 1d 	call	0x3abc	; 0x3abc <__subsf3>
    1a92:	7b 01       	movw	r14, r22
    1a94:	8c 01       	movw	r16, r24
    1a96:	b3 94       	inc	r11
    1a98:	ea cf       	rjmp	.-44     	; 0x1a6e <_Z14float_to_uCharf+0xb4>
    1a9a:	fe 01       	movw	r30, r28
    1a9c:	ec 0d       	add	r30, r12
    1a9e:	fd 1d       	adc	r31, r13
    1aa0:	80 e3       	ldi	r24, 0x30	; 48
    1aa2:	8b 0d       	add	r24, r11
    1aa4:	04 c0       	rjmp	.+8      	; 0x1aae <_Z14float_to_uCharf+0xf4>
    1aa6:	fe 01       	movw	r30, r28
    1aa8:	ec 0d       	add	r30, r12
    1aaa:	fd 1d       	adc	r31, r13
    1aac:	80 e3       	ldi	r24, 0x30	; 48
    1aae:	81 83       	std	Z+1, r24	; 0x01
    1ab0:	8f ef       	ldi	r24, 0xFF	; 255
    1ab2:	c8 1a       	sub	r12, r24
    1ab4:	d8 0a       	sbc	r13, r24
    1ab6:	20 e0       	ldi	r18, 0x00	; 0
    1ab8:	30 e0       	ldi	r19, 0x00	; 0
    1aba:	a9 01       	movw	r20, r18
    1abc:	b7 01       	movw	r22, r14
    1abe:	c8 01       	movw	r24, r16
    1ac0:	0e 94 2a 1f 	call	0x3e54	; 0x3e54 <__gesf2>
    1ac4:	87 fd       	sbrc	r24, 7
    1ac6:	20 c0       	rjmp	.+64     	; 0x1b08 <_Z14float_to_uCharf+0x14e>
    1ac8:	b1 2c       	mov	r11, r1
    1aca:	20 e0       	ldi	r18, 0x00	; 0
    1acc:	30 e0       	ldi	r19, 0x00	; 0
    1ace:	40 e8       	ldi	r20, 0x80	; 128
    1ad0:	5f e3       	ldi	r21, 0x3F	; 63
    1ad2:	b7 01       	movw	r22, r14
    1ad4:	c8 01       	movw	r24, r16
    1ad6:	0e 94 2a 1f 	call	0x3e54	; 0x3e54 <__gesf2>
    1ada:	87 fd       	sbrc	r24, 7
    1adc:	0c c0       	rjmp	.+24     	; 0x1af6 <_Z14float_to_uCharf+0x13c>
    1ade:	20 e0       	ldi	r18, 0x00	; 0
    1ae0:	30 e0       	ldi	r19, 0x00	; 0
    1ae2:	40 e8       	ldi	r20, 0x80	; 128
    1ae4:	5f e3       	ldi	r21, 0x3F	; 63
    1ae6:	b7 01       	movw	r22, r14
    1ae8:	c8 01       	movw	r24, r16
    1aea:	0e 94 5e 1d 	call	0x3abc	; 0x3abc <__subsf3>
    1aee:	7b 01       	movw	r14, r22
    1af0:	8c 01       	movw	r16, r24
    1af2:	b3 94       	inc	r11
    1af4:	ea cf       	rjmp	.-44     	; 0x1aca <_Z14float_to_uCharf+0x110>
    1af6:	fe 01       	movw	r30, r28
    1af8:	ec 0d       	add	r30, r12
    1afa:	fd 1d       	adc	r31, r13
    1afc:	80 e3       	ldi	r24, 0x30	; 48
    1afe:	8b 0d       	add	r24, r11
    1b00:	81 83       	std	Z+1, r24	; 0x01
    1b02:	8f ef       	ldi	r24, 0xFF	; 255
    1b04:	c8 1a       	sub	r12, r24
    1b06:	d8 0a       	sbc	r13, r24
    1b08:	e1 e0       	ldi	r30, 0x01	; 1
    1b0a:	f0 e0       	ldi	r31, 0x00	; 0
    1b0c:	ec 0f       	add	r30, r28
    1b0e:	fd 1f       	adc	r31, r29
    1b10:	ec 0d       	add	r30, r12
    1b12:	fd 1d       	adc	r31, r13
    1b14:	8e e2       	ldi	r24, 0x2E	; 46
    1b16:	80 83       	st	Z, r24
    1b18:	56 01       	movw	r10, r12
    1b1a:	8f ef       	ldi	r24, 0xFF	; 255
    1b1c:	a8 1a       	sub	r10, r24
    1b1e:	b8 0a       	sbc	r11, r24
    1b20:	2d ec       	ldi	r18, 0xCD	; 205
    1b22:	3c ec       	ldi	r19, 0xCC	; 204
    1b24:	4c ec       	ldi	r20, 0xCC	; 204
    1b26:	5d e3       	ldi	r21, 0x3D	; 61
    1b28:	b7 01       	movw	r22, r14
    1b2a:	c8 01       	movw	r24, r16
    1b2c:	0e 94 2a 1f 	call	0x3e54	; 0x3e54 <__gesf2>
    1b30:	87 fd       	sbrc	r24, 7
    1b32:	1d c0       	rjmp	.+58     	; 0x1b6e <_Z14float_to_uCharf+0x1b4>
    1b34:	51 2c       	mov	r5, r1
    1b36:	2d ec       	ldi	r18, 0xCD	; 205
    1b38:	3c ec       	ldi	r19, 0xCC	; 204
    1b3a:	4c ec       	ldi	r20, 0xCC	; 204
    1b3c:	5d e3       	ldi	r21, 0x3D	; 61
    1b3e:	b7 01       	movw	r22, r14
    1b40:	c8 01       	movw	r24, r16
    1b42:	0e 94 5e 1d 	call	0x3abc	; 0x3abc <__subsf3>
    1b46:	7b 01       	movw	r14, r22
    1b48:	8c 01       	movw	r16, r24
    1b4a:	53 94       	inc	r5
    1b4c:	2d ec       	ldi	r18, 0xCD	; 205
    1b4e:	3c ec       	ldi	r19, 0xCC	; 204
    1b50:	4c ec       	ldi	r20, 0xCC	; 204
    1b52:	5d e3       	ldi	r21, 0x3D	; 61
    1b54:	0e 94 2a 1f 	call	0x3e54	; 0x3e54 <__gesf2>
    1b58:	87 ff       	sbrs	r24, 7
    1b5a:	ed cf       	rjmp	.-38     	; 0x1b36 <_Z14float_to_uCharf+0x17c>
    1b5c:	e1 e0       	ldi	r30, 0x01	; 1
    1b5e:	f0 e0       	ldi	r31, 0x00	; 0
    1b60:	ec 0f       	add	r30, r28
    1b62:	fd 1f       	adc	r31, r29
    1b64:	ea 0d       	add	r30, r10
    1b66:	fb 1d       	adc	r31, r11
    1b68:	80 e3       	ldi	r24, 0x30	; 48
    1b6a:	85 0d       	add	r24, r5
    1b6c:	07 c0       	rjmp	.+14     	; 0x1b7c <_Z14float_to_uCharf+0x1c2>
    1b6e:	e1 e0       	ldi	r30, 0x01	; 1
    1b70:	f0 e0       	ldi	r31, 0x00	; 0
    1b72:	ec 0f       	add	r30, r28
    1b74:	fd 1f       	adc	r31, r29
    1b76:	ea 0d       	add	r30, r10
    1b78:	fb 1d       	adc	r31, r11
    1b7a:	80 e3       	ldi	r24, 0x30	; 48
    1b7c:	80 83       	st	Z, r24
    1b7e:	82 e0       	ldi	r24, 0x02	; 2
    1b80:	c8 0e       	add	r12, r24
    1b82:	d1 1c       	adc	r13, r1
    1b84:	2a e0       	ldi	r18, 0x0A	; 10
    1b86:	37 ed       	ldi	r19, 0xD7	; 215
    1b88:	43 e2       	ldi	r20, 0x23	; 35
    1b8a:	5c e3       	ldi	r21, 0x3C	; 60
    1b8c:	b7 01       	movw	r22, r14
    1b8e:	c8 01       	movw	r24, r16
    1b90:	0e 94 2a 1f 	call	0x3e54	; 0x3e54 <__gesf2>
    1b94:	87 fd       	sbrc	r24, 7
    1b96:	1d c0       	rjmp	.+58     	; 0x1bd2 <_Z14float_to_uCharf+0x218>
    1b98:	b1 2c       	mov	r11, r1
    1b9a:	2a e0       	ldi	r18, 0x0A	; 10
    1b9c:	37 ed       	ldi	r19, 0xD7	; 215
    1b9e:	43 e2       	ldi	r20, 0x23	; 35
    1ba0:	5c e3       	ldi	r21, 0x3C	; 60
    1ba2:	b7 01       	movw	r22, r14
    1ba4:	c8 01       	movw	r24, r16
    1ba6:	0e 94 5e 1d 	call	0x3abc	; 0x3abc <__subsf3>
    1baa:	7b 01       	movw	r14, r22
    1bac:	8c 01       	movw	r16, r24
    1bae:	b3 94       	inc	r11
    1bb0:	2a e0       	ldi	r18, 0x0A	; 10
    1bb2:	37 ed       	ldi	r19, 0xD7	; 215
    1bb4:	43 e2       	ldi	r20, 0x23	; 35
    1bb6:	5c e3       	ldi	r21, 0x3C	; 60
    1bb8:	0e 94 2a 1f 	call	0x3e54	; 0x3e54 <__gesf2>
    1bbc:	87 ff       	sbrs	r24, 7
    1bbe:	ed cf       	rjmp	.-38     	; 0x1b9a <_Z14float_to_uCharf+0x1e0>
    1bc0:	e1 e0       	ldi	r30, 0x01	; 1
    1bc2:	f0 e0       	ldi	r31, 0x00	; 0
    1bc4:	ec 0f       	add	r30, r28
    1bc6:	fd 1f       	adc	r31, r29
    1bc8:	ec 0d       	add	r30, r12
    1bca:	fd 1d       	adc	r31, r13
    1bcc:	80 e3       	ldi	r24, 0x30	; 48
    1bce:	8b 0d       	add	r24, r11
    1bd0:	80 83       	st	Z, r24
    1bd2:	20 e0       	ldi	r18, 0x00	; 0
    1bd4:	30 e0       	ldi	r19, 0x00	; 0
    1bd6:	48 ec       	ldi	r20, 0xC8	; 200
    1bd8:	52 e4       	ldi	r21, 0x42	; 66
    1bda:	b3 01       	movw	r22, r6
    1bdc:	c4 01       	movw	r24, r8
    1bde:	0e 94 cb 1d 	call	0x3b96	; 0x3b96 <__cmpsf2>
    1be2:	87 fd       	sbrc	r24, 7
    1be4:	1e 82       	std	Y+6, r1	; 0x06
    1be6:	61 e0       	ldi	r22, 0x01	; 1
    1be8:	70 e0       	ldi	r23, 0x00	; 0
    1bea:	80 e0       	ldi	r24, 0x00	; 0
    1bec:	90 e0       	ldi	r25, 0x00	; 0
    1bee:	0e 94 17 1c 	call	0x382e	; 0x382e <delay>
    1bf2:	ce 01       	movw	r24, r28
    1bf4:	01 96       	adiw	r24, 0x01	; 1
    1bf6:	2a 96       	adiw	r28, 0x0a	; 10
    1bf8:	0f b6       	in	r0, 0x3f	; 63
    1bfa:	f8 94       	cli
    1bfc:	de bf       	out	0x3e, r29	; 62
    1bfe:	0f be       	out	0x3f, r0	; 63
    1c00:	cd bf       	out	0x3d, r28	; 61
    1c02:	df 91       	pop	r29
    1c04:	cf 91       	pop	r28
    1c06:	1f 91       	pop	r17
    1c08:	0f 91       	pop	r16
    1c0a:	ff 90       	pop	r15
    1c0c:	ef 90       	pop	r14
    1c0e:	df 90       	pop	r13
    1c10:	cf 90       	pop	r12
    1c12:	bf 90       	pop	r11
    1c14:	af 90       	pop	r10
    1c16:	9f 90       	pop	r9
    1c18:	8f 90       	pop	r8
    1c1a:	7f 90       	pop	r7
    1c1c:	6f 90       	pop	r6
    1c1e:	5f 90       	pop	r5
    1c20:	08 95       	ret

00001c22 <_Z19TickFct_OLED_outputv>:
    1c22:	8f 92       	push	r8
    1c24:	9f 92       	push	r9
    1c26:	af 92       	push	r10
    1c28:	bf 92       	push	r11
    1c2a:	cf 92       	push	r12
    1c2c:	df 92       	push	r13
    1c2e:	ef 92       	push	r14
    1c30:	ff 92       	push	r15
    1c32:	80 91 78 05 	lds	r24, 0x0578
    1c36:	82 30       	cpi	r24, 0x02	; 2
    1c38:	19 f1       	breq	.+70     	; 0x1c80 <_Z19TickFct_OLED_outputv+0x5e>
    1c3a:	38 f4       	brcc	.+14     	; 0x1c4a <_Z19TickFct_OLED_outputv+0x28>
    1c3c:	88 23       	and	r24, r24
    1c3e:	09 f4       	brne	.+2      	; 0x1c42 <_Z19TickFct_OLED_outputv+0x20>
    1c40:	d3 c0       	rjmp	.+422    	; 0x1de8 <_Z19TickFct_OLED_outputv+0x1c6>
    1c42:	81 30       	cpi	r24, 0x01	; 1
    1c44:	09 f4       	brne	.+2      	; 0x1c48 <_Z19TickFct_OLED_outputv+0x26>
    1c46:	08 c1       	rjmp	.+528    	; 0x1e58 <_Z19TickFct_OLED_outputv+0x236>
    1c48:	05 c1       	rjmp	.+522    	; 0x1e54 <_Z19TickFct_OLED_outputv+0x232>
    1c4a:	83 30       	cpi	r24, 0x03	; 3
    1c4c:	d9 f1       	breq	.+118    	; 0x1cc4 <_Z19TickFct_OLED_outputv+0xa2>
    1c4e:	84 30       	cpi	r24, 0x04	; 4
    1c50:	09 f0       	breq	.+2      	; 0x1c54 <_Z19TickFct_OLED_outputv+0x32>
    1c52:	00 c1       	rjmp	.+512    	; 0x1e54 <_Z19TickFct_OLED_outputv+0x232>
    1c54:	67 e0       	ldi	r22, 0x07	; 7
    1c56:	82 e0       	ldi	r24, 0x02	; 2
    1c58:	0e 94 9b 0b 	call	0x1736	; 0x1736 <_Z5setXYhh>
    1c5c:	60 91 6a 07 	lds	r22, 0x076A
    1c60:	70 91 6b 07 	lds	r23, 0x076B
    1c64:	80 91 6c 07 	lds	r24, 0x076C
    1c68:	90 91 6d 07 	lds	r25, 0x076D
    1c6c:	0e 94 dd 0c 	call	0x19ba	; 0x19ba <_Z14float_to_uCharf>
    1c70:	80 93 41 07 	sts	0x0741, r24
    1c74:	90 93 42 07 	sts	0x0742, r25
    1c78:	dc 01       	movw	r26, r24
    1c7a:	e7 e3       	ldi	r30, 0x37	; 55
    1c7c:	f7 e0       	ldi	r31, 0x07	; 7
    1c7e:	49 c0       	rjmp	.+146    	; 0x1d12 <_Z19TickFct_OLED_outputv+0xf0>
    1c80:	61 e0       	ldi	r22, 0x01	; 1
    1c82:	81 e0       	ldi	r24, 0x01	; 1
    1c84:	0e 94 9b 0b 	call	0x1736	; 0x1736 <_Z5setXYhh>
    1c88:	8c e3       	ldi	r24, 0x3C	; 60
    1c8a:	94 e0       	ldi	r25, 0x04	; 4
    1c8c:	0e 94 bd 0b 	call	0x177a	; 0x177a <_Z7sendStrPKc>
    1c90:	61 e0       	ldi	r22, 0x01	; 1
    1c92:	82 e0       	ldi	r24, 0x02	; 2
    1c94:	0e 94 9b 0b 	call	0x1736	; 0x1736 <_Z5setXYhh>
    1c98:	8d e3       	ldi	r24, 0x3D	; 61
    1c9a:	95 e0       	ldi	r25, 0x05	; 5
    1c9c:	0e 94 bd 0b 	call	0x177a	; 0x177a <_Z7sendStrPKc>
    1ca0:	61 e0       	ldi	r22, 0x01	; 1
    1ca2:	84 e0       	ldi	r24, 0x04	; 4
    1ca4:	0e 94 9b 0b 	call	0x1736	; 0x1736 <_Z5setXYhh>
    1ca8:	87 e3       	ldi	r24, 0x37	; 55
    1caa:	95 e0       	ldi	r25, 0x05	; 5
    1cac:	0e 94 bd 0b 	call	0x177a	; 0x177a <_Z7sendStrPKc>
    1cb0:	61 e0       	ldi	r22, 0x01	; 1
    1cb2:	85 e0       	ldi	r24, 0x05	; 5
    1cb4:	0e 94 9b 0b 	call	0x1736	; 0x1736 <_Z5setXYhh>
    1cb8:	81 e3       	ldi	r24, 0x31	; 49
    1cba:	95 e0       	ldi	r25, 0x05	; 5
    1cbc:	0e 94 bd 0b 	call	0x177a	; 0x177a <_Z7sendStrPKc>
    1cc0:	83 e0       	ldi	r24, 0x03	; 3
    1cc2:	c5 c0       	rjmp	.+394    	; 0x1e4e <_Z19TickFct_OLED_outputv+0x22c>
    1cc4:	67 e0       	ldi	r22, 0x07	; 7
    1cc6:	82 e0       	ldi	r24, 0x02	; 2
    1cc8:	0e 94 9b 0b 	call	0x1736	; 0x1736 <_Z5setXYhh>
    1ccc:	60 91 66 07 	lds	r22, 0x0766
    1cd0:	70 91 67 07 	lds	r23, 0x0767
    1cd4:	80 91 68 07 	lds	r24, 0x0768
    1cd8:	90 91 69 07 	lds	r25, 0x0769
    1cdc:	0e 94 dd 0c 	call	0x19ba	; 0x19ba <_Z14float_to_uCharf>
    1ce0:	80 93 41 07 	sts	0x0741, r24
    1ce4:	90 93 42 07 	sts	0x0742, r25
    1ce8:	dc 01       	movw	r26, r24
    1cea:	e7 e3       	ldi	r30, 0x37	; 55
    1cec:	f7 e0       	ldi	r31, 0x07	; 7
    1cee:	8d 91       	ld	r24, X+
    1cf0:	8a 33       	cpi	r24, 0x3A	; 58
    1cf2:	10 f4       	brcc	.+4      	; 0x1cf8 <_Z19TickFct_OLED_outputv+0xd6>
    1cf4:	80 83       	st	Z, r24
    1cf6:	01 c0       	rjmp	.+2      	; 0x1cfa <_Z19TickFct_OLED_outputv+0xd8>
    1cf8:	10 82       	st	Z, r1
    1cfa:	31 96       	adiw	r30, 0x01	; 1
    1cfc:	87 e0       	ldi	r24, 0x07	; 7
    1cfe:	ee 33       	cpi	r30, 0x3E	; 62
    1d00:	f8 07       	cpc	r31, r24
    1d02:	a9 f7       	brne	.-22     	; 0x1cee <_Z19TickFct_OLED_outputv+0xcc>
    1d04:	0b c0       	rjmp	.+22     	; 0x1d1c <_Z19TickFct_OLED_outputv+0xfa>
    1d06:	10 82       	st	Z, r1
    1d08:	31 96       	adiw	r30, 0x01	; 1
    1d0a:	87 e0       	ldi	r24, 0x07	; 7
    1d0c:	ee 33       	cpi	r30, 0x3E	; 62
    1d0e:	f8 07       	cpc	r31, r24
    1d10:	29 f0       	breq	.+10     	; 0x1d1c <_Z19TickFct_OLED_outputv+0xfa>
    1d12:	8d 91       	ld	r24, X+
    1d14:	8a 33       	cpi	r24, 0x3A	; 58
    1d16:	b8 f7       	brcc	.-18     	; 0x1d06 <_Z19TickFct_OLED_outputv+0xe4>
    1d18:	80 83       	st	Z, r24
    1d1a:	f6 cf       	rjmp	.-20     	; 0x1d08 <_Z19TickFct_OLED_outputv+0xe6>
    1d1c:	87 e3       	ldi	r24, 0x37	; 55
    1d1e:	97 e0       	ldi	r25, 0x07	; 7
    1d20:	0e 94 bd 0b 	call	0x177a	; 0x177a <_Z7sendStrPKc>
    1d24:	80 90 6e 07 	lds	r8, 0x076E
    1d28:	90 90 6f 07 	lds	r9, 0x076F
    1d2c:	a0 90 70 07 	lds	r10, 0x0770
    1d30:	b0 90 71 07 	lds	r11, 0x0771
    1d34:	c0 90 66 07 	lds	r12, 0x0766
    1d38:	d0 90 67 07 	lds	r13, 0x0767
    1d3c:	e0 90 68 07 	lds	r14, 0x0768
    1d40:	f0 90 69 07 	lds	r15, 0x0769
    1d44:	a7 01       	movw	r20, r14
    1d46:	96 01       	movw	r18, r12
    1d48:	c5 01       	movw	r24, r10
    1d4a:	b4 01       	movw	r22, r8
    1d4c:	0e 94 2a 1f 	call	0x3e54	; 0x3e54 <__gesf2>
    1d50:	18 16       	cp	r1, r24
    1d52:	6c f0       	brlt	.+26     	; 0x1d6e <_Z19TickFct_OLED_outputv+0x14c>
    1d54:	20 e0       	ldi	r18, 0x00	; 0
    1d56:	30 e0       	ldi	r19, 0x00	; 0
    1d58:	a9 01       	movw	r20, r18
    1d5a:	c5 01       	movw	r24, r10
    1d5c:	b4 01       	movw	r22, r8
    1d5e:	0e 94 cb 1d 	call	0x3b96	; 0x3b96 <__cmpsf2>
    1d62:	88 23       	and	r24, r24
    1d64:	21 f0       	breq	.+8      	; 0x1d6e <_Z19TickFct_OLED_outputv+0x14c>
    1d66:	80 91 79 05 	lds	r24, 0x0579
    1d6a:	88 23       	and	r24, r24
    1d6c:	81 f0       	breq	.+32     	; 0x1d8e <_Z19TickFct_OLED_outputv+0x16c>
    1d6e:	c0 92 6e 07 	sts	0x076E, r12
    1d72:	d0 92 6f 07 	sts	0x076F, r13
    1d76:	e0 92 70 07 	sts	0x0770, r14
    1d7a:	f0 92 71 07 	sts	0x0771, r15
    1d7e:	66 e0       	ldi	r22, 0x06	; 6
    1d80:	84 e0       	ldi	r24, 0x04	; 4
    1d82:	0e 94 9b 0b 	call	0x1736	; 0x1736 <_Z5setXYhh>
    1d86:	87 e3       	ldi	r24, 0x37	; 55
    1d88:	97 e0       	ldi	r25, 0x07	; 7
    1d8a:	0e 94 bd 0b 	call	0x177a	; 0x177a <_Z7sendStrPKc>
    1d8e:	c0 90 66 07 	lds	r12, 0x0766
    1d92:	d0 90 67 07 	lds	r13, 0x0767
    1d96:	e0 90 68 07 	lds	r14, 0x0768
    1d9a:	f0 90 69 07 	lds	r15, 0x0769
    1d9e:	a7 01       	movw	r20, r14
    1da0:	96 01       	movw	r18, r12
    1da2:	60 91 72 07 	lds	r22, 0x0772
    1da6:	70 91 73 07 	lds	r23, 0x0773
    1daa:	80 91 74 07 	lds	r24, 0x0774
    1dae:	90 91 75 07 	lds	r25, 0x0775
    1db2:	0e 94 cb 1d 	call	0x3b96	; 0x3b96 <__cmpsf2>
    1db6:	87 fd       	sbrc	r24, 7
    1db8:	04 c0       	rjmp	.+8      	; 0x1dc2 <_Z19TickFct_OLED_outputv+0x1a0>
    1dba:	80 91 79 05 	lds	r24, 0x0579
    1dbe:	88 23       	and	r24, r24
    1dc0:	81 f0       	breq	.+32     	; 0x1de2 <_Z19TickFct_OLED_outputv+0x1c0>
    1dc2:	c0 92 72 07 	sts	0x0772, r12
    1dc6:	d0 92 73 07 	sts	0x0773, r13
    1dca:	e0 92 74 07 	sts	0x0774, r14
    1dce:	f0 92 75 07 	sts	0x0775, r15
    1dd2:	66 e0       	ldi	r22, 0x06	; 6
    1dd4:	85 e0       	ldi	r24, 0x05	; 5
    1dd6:	0e 94 9b 0b 	call	0x1736	; 0x1736 <_Z5setXYhh>
    1dda:	87 e3       	ldi	r24, 0x37	; 55
    1ddc:	97 e0       	ldi	r25, 0x07	; 7
    1dde:	0e 94 bd 0b 	call	0x177a	; 0x177a <_Z7sendStrPKc>
    1de2:	10 92 79 05 	sts	0x0579, r1
    1de6:	38 c0       	rjmp	.+112    	; 0x1e58 <_Z19TickFct_OLED_outputv+0x236>
    1de8:	0e 94 39 0c 	call	0x1872	; 0x1872 <_Z13clear_displayv>
    1dec:	61 e0       	ldi	r22, 0x01	; 1
    1dee:	81 e0       	ldi	r24, 0x01	; 1
    1df0:	0e 94 9b 0b 	call	0x1736	; 0x1736 <_Z5setXYhh>
    1df4:	84 e5       	ldi	r24, 0x54	; 84
    1df6:	94 e0       	ldi	r25, 0x04	; 4
    1df8:	0e 94 bd 0b 	call	0x177a	; 0x177a <_Z7sendStrPKc>
    1dfc:	61 e0       	ldi	r22, 0x01	; 1
    1dfe:	82 e0       	ldi	r24, 0x02	; 2
    1e00:	0e 94 9b 0b 	call	0x1736	; 0x1736 <_Z5setXYhh>
    1e04:	81 e6       	ldi	r24, 0x61	; 97
    1e06:	94 e0       	ldi	r25, 0x04	; 4
    1e08:	0e 94 bd 0b 	call	0x177a	; 0x177a <_Z7sendStrPKc>
    1e0c:	61 e0       	ldi	r22, 0x01	; 1
    1e0e:	83 e0       	ldi	r24, 0x03	; 3
    1e10:	0e 94 9b 0b 	call	0x1736	; 0x1736 <_Z5setXYhh>
    1e14:	8d e6       	ldi	r24, 0x6D	; 109
    1e16:	94 e0       	ldi	r25, 0x04	; 4
    1e18:	0e 94 bd 0b 	call	0x177a	; 0x177a <_Z7sendStrPKc>
    1e1c:	61 e0       	ldi	r22, 0x01	; 1
    1e1e:	84 e0       	ldi	r24, 0x04	; 4
    1e20:	0e 94 9b 0b 	call	0x1736	; 0x1736 <_Z5setXYhh>
    1e24:	89 e7       	ldi	r24, 0x79	; 121
    1e26:	94 e0       	ldi	r25, 0x04	; 4
    1e28:	0e 94 bd 0b 	call	0x177a	; 0x177a <_Z7sendStrPKc>
    1e2c:	61 e0       	ldi	r22, 0x01	; 1
    1e2e:	85 e0       	ldi	r24, 0x05	; 5
    1e30:	0e 94 9b 0b 	call	0x1736	; 0x1736 <_Z5setXYhh>
    1e34:	84 e8       	ldi	r24, 0x84	; 132
    1e36:	94 e0       	ldi	r25, 0x04	; 4
    1e38:	0e 94 bd 0b 	call	0x177a	; 0x177a <_Z7sendStrPKc>
    1e3c:	61 e0       	ldi	r22, 0x01	; 1
    1e3e:	86 e0       	ldi	r24, 0x06	; 6
    1e40:	0e 94 9b 0b 	call	0x1736	; 0x1736 <_Z5setXYhh>
    1e44:	82 e9       	ldi	r24, 0x92	; 146
    1e46:	94 e0       	ldi	r25, 0x04	; 4
    1e48:	0e 94 bd 0b 	call	0x177a	; 0x177a <_Z7sendStrPKc>
    1e4c:	81 e0       	ldi	r24, 0x01	; 1
    1e4e:	80 93 78 05 	sts	0x0578, r24
    1e52:	02 c0       	rjmp	.+4      	; 0x1e58 <_Z19TickFct_OLED_outputv+0x236>
    1e54:	10 92 78 05 	sts	0x0578, r1
    1e58:	ff 90       	pop	r15
    1e5a:	ef 90       	pop	r14
    1e5c:	df 90       	pop	r13
    1e5e:	cf 90       	pop	r12
    1e60:	bf 90       	pop	r11
    1e62:	af 90       	pop	r10
    1e64:	9f 90       	pop	r9
    1e66:	8f 90       	pop	r8
    1e68:	08 95       	ret

00001e6a <_Z6tempSMv>:
    1e6a:	ef 92       	push	r14
    1e6c:	ff 92       	push	r15
    1e6e:	0f 93       	push	r16
    1e70:	1f 93       	push	r17
    1e72:	cf 93       	push	r28
    1e74:	df 93       	push	r29
    1e76:	cd b7       	in	r28, 0x3d	; 61
    1e78:	de b7       	in	r29, 0x3e	; 62
    1e7a:	28 97       	sbiw	r28, 0x08	; 8
    1e7c:	0f b6       	in	r0, 0x3f	; 63
    1e7e:	f8 94       	cli
    1e80:	de bf       	out	0x3e, r29	; 62
    1e82:	0f be       	out	0x3f, r0	; 63
    1e84:	cd bf       	out	0x3d, r28	; 61
    1e86:	83 e4       	ldi	r24, 0x43	; 67
    1e88:	97 e0       	ldi	r25, 0x07	; 7
    1e8a:	0e 94 19 07 	call	0xe32	; 0xe32 <_ZN17DallasTemperature5beginEv>
    1e8e:	83 e4       	ldi	r24, 0x43	; 67
    1e90:	97 e0       	ldi	r25, 0x07	; 7
    1e92:	0e 94 f9 05 	call	0xbf2	; 0xbf2 <_ZN17DallasTemperature14getDeviceCountEv>
    1e96:	e8 2e       	mov	r14, r24
    1e98:	f1 2c       	mov	r15, r1
    1e9a:	83 e4       	ldi	r24, 0x43	; 67
    1e9c:	97 e0       	ldi	r25, 0x07	; 7
    1e9e:	0e 94 e2 08 	call	0x11c4	; 0x11c4 <_ZN17DallasTemperature19isParasitePowerModeEv>
    1ea2:	88 23       	and	r24, r24
    1ea4:	39 f0       	breq	.+14     	; 0x1eb4 <_Z6tempSMv+0x4a>
    1ea6:	60 ea       	ldi	r22, 0xA0	; 160
    1ea8:	74 e0       	ldi	r23, 0x04	; 4
    1eaa:	8c eb       	ldi	r24, 0xBC	; 188
    1eac:	97 e0       	ldi	r25, 0x07	; 7
    1eae:	0e 94 a4 18 	call	0x3148	; 0x3148 <_ZN5Print5printEPKc>
    1eb2:	04 c0       	rjmp	.+8      	; 0x1ebc <_Z6tempSMv+0x52>
    1eb4:	83 e4       	ldi	r24, 0x43	; 67
    1eb6:	97 e0       	ldi	r25, 0x07	; 7
    1eb8:	0e 94 ed 07 	call	0xfda	; 0xfda <_ZN17DallasTemperature19requestTemperaturesEv>
    1ebc:	00 e0       	ldi	r16, 0x00	; 0
    1ebe:	10 e0       	ldi	r17, 0x00	; 0
    1ec0:	0e 15       	cp	r16, r14
    1ec2:	1f 05       	cpc	r17, r15
    1ec4:	34 f5       	brge	.+76     	; 0x1f12 <_Z6tempSMv+0xa8>
    1ec6:	40 2f       	mov	r20, r16
    1ec8:	be 01       	movw	r22, r28
    1eca:	6f 5f       	subi	r22, 0xFF	; 255
    1ecc:	7f 4f       	sbci	r23, 0xFF	; 255
    1ece:	83 e4       	ldi	r24, 0x43	; 67
    1ed0:	97 e0       	ldi	r25, 0x07	; 7
    1ed2:	0e 94 0b 06 	call	0xc16	; 0xc16 <_ZN17DallasTemperature10getAddressEPhh>
    1ed6:	88 23       	and	r24, r24
    1ed8:	c9 f0       	breq	.+50     	; 0x1f0c <_Z6tempSMv+0xa2>
    1eda:	be 01       	movw	r22, r28
    1edc:	6f 5f       	subi	r22, 0xFF	; 255
    1ede:	7f 4f       	sbci	r23, 0xFF	; 255
    1ee0:	83 e4       	ldi	r24, 0x43	; 67
    1ee2:	97 e0       	ldi	r25, 0x07	; 7
    1ee4:	0e 94 b2 08 	call	0x1164	; 0x1164 <_ZN17DallasTemperature8getTempCEPh>
    1ee8:	60 93 6a 07 	sts	0x076A, r22
    1eec:	70 93 6b 07 	sts	0x076B, r23
    1ef0:	80 93 6c 07 	sts	0x076C, r24
    1ef4:	90 93 6d 07 	sts	0x076D, r25
    1ef8:	0e 94 e5 08 	call	0x11ca	; 0x11ca <_ZN17DallasTemperature12toFahrenheitEf>
    1efc:	60 93 66 07 	sts	0x0766, r22
    1f00:	70 93 67 07 	sts	0x0767, r23
    1f04:	80 93 68 07 	sts	0x0768, r24
    1f08:	90 93 69 07 	sts	0x0769, r25
    1f0c:	0f 5f       	subi	r16, 0xFF	; 255
    1f0e:	1f 4f       	sbci	r17, 0xFF	; 255
    1f10:	d7 cf       	rjmp	.-82     	; 0x1ec0 <_Z6tempSMv+0x56>
    1f12:	28 96       	adiw	r28, 0x08	; 8
    1f14:	0f b6       	in	r0, 0x3f	; 63
    1f16:	f8 94       	cli
    1f18:	de bf       	out	0x3e, r29	; 62
    1f1a:	0f be       	out	0x3f, r0	; 63
    1f1c:	cd bf       	out	0x3d, r28	; 61
    1f1e:	df 91       	pop	r29
    1f20:	cf 91       	pop	r28
    1f22:	1f 91       	pop	r17
    1f24:	0f 91       	pop	r16
    1f26:	ff 90       	pop	r15
    1f28:	ef 90       	pop	r14
    1f2a:	08 95       	ret

00001f2c <_Z12TickFct_Tempv>:
    1f2c:	cf 93       	push	r28
    1f2e:	df 93       	push	r29
    1f30:	cd b7       	in	r28, 0x3d	; 61
    1f32:	de b7       	in	r29, 0x3e	; 62
    1f34:	28 97       	sbiw	r28, 0x08	; 8
    1f36:	0f b6       	in	r0, 0x3f	; 63
    1f38:	f8 94       	cli
    1f3a:	de bf       	out	0x3e, r29	; 62
    1f3c:	0f be       	out	0x3f, r0	; 63
    1f3e:	cd bf       	out	0x3d, r28	; 61
    1f40:	0e 94 35 0f 	call	0x1e6a	; 0x1e6a <_Z6tempSMv>
    1f44:	66 e0       	ldi	r22, 0x06	; 6
    1f46:	87 e0       	ldi	r24, 0x07	; 7
    1f48:	0e 94 9b 0b 	call	0x1736	; 0x1736 <_Z5setXYhh>
    1f4c:	8e e0       	ldi	r24, 0x0E	; 14
    1f4e:	0e 94 83 1c 	call	0x3906	; 0x3906 <analogRead>
    1f52:	90 93 6a 06 	sts	0x066A, r25
    1f56:	80 93 69 06 	sts	0x0669, r24
    1f5a:	88 3e       	cpi	r24, 0xE8	; 232
    1f5c:	93 40       	sbci	r25, 0x03	; 3
    1f5e:	44 f4       	brge	.+16     	; 0x1f70 <_Z12TickFct_Tempv+0x44>
    1f60:	69 e0       	ldi	r22, 0x09	; 9
    1f62:	87 e0       	ldi	r24, 0x07	; 7
    1f64:	0e 94 9b 0b 	call	0x1736	; 0x1736 <_Z5setXYhh>
    1f68:	8f e2       	ldi	r24, 0x2F	; 47
    1f6a:	95 e0       	ldi	r25, 0x05	; 5
    1f6c:	0e 94 bd 0b 	call	0x177a	; 0x177a <_Z7sendStrPKc>
    1f70:	66 e0       	ldi	r22, 0x06	; 6
    1f72:	87 e0       	ldi	r24, 0x07	; 7
    1f74:	0e 94 9b 0b 	call	0x1736	; 0x1736 <_Z5setXYhh>
    1f78:	4a e0       	ldi	r20, 0x0A	; 10
    1f7a:	50 e0       	ldi	r21, 0x00	; 0
    1f7c:	be 01       	movw	r22, r28
    1f7e:	6f 5f       	subi	r22, 0xFF	; 255
    1f80:	7f 4f       	sbci	r23, 0xFF	; 255
    1f82:	80 91 69 06 	lds	r24, 0x0669
    1f86:	90 91 6a 06 	lds	r25, 0x066A
    1f8a:	0e 94 88 20 	call	0x4110	; 0x4110 <itoa>
    1f8e:	0e 94 bd 0b 	call	0x177a	; 0x177a <_Z7sendStrPKc>
    1f92:	28 96       	adiw	r28, 0x08	; 8
    1f94:	0f b6       	in	r0, 0x3f	; 63
    1f96:	f8 94       	cli
    1f98:	de bf       	out	0x3e, r29	; 62
    1f9a:	0f be       	out	0x3f, r0	; 63
    1f9c:	cd bf       	out	0x3d, r28	; 61
    1f9e:	df 91       	pop	r29
    1fa0:	cf 91       	pop	r28
    1fa2:	08 95       	ret

00001fa4 <_ZN4Task5resetEv>:
    1fa4:	fc 01       	movw	r30, r24
    1fa6:	80 81       	ld	r24, Z
    1fa8:	8e 7f       	andi	r24, 0xFE	; 254
    1faa:	80 83       	st	Z, r24
    1fac:	80 81       	ld	r24, Z
    1fae:	8d 7f       	andi	r24, 0xFD	; 253
    1fb0:	80 83       	st	Z, r24
    1fb2:	15 82       	std	Z+5, r1	; 0x05
    1fb4:	16 82       	std	Z+6, r1	; 0x06
    1fb6:	17 82       	std	Z+7, r1	; 0x07
    1fb8:	10 86       	std	Z+8, r1	; 0x08
    1fba:	14 8e       	std	Z+28, r1	; 0x1c
    1fbc:	13 8e       	std	Z+27, r1	; 0x1b
    1fbe:	16 8e       	std	Z+30, r1	; 0x1e
    1fc0:	15 8e       	std	Z+29, r1	; 0x1d
    1fc2:	10 a2       	std	Z+32, r1	; 0x20
    1fc4:	17 8e       	std	Z+31, r1	; 0x1f
    1fc6:	11 8a       	std	Z+17, r1	; 0x11
    1fc8:	12 8a       	std	Z+18, r1	; 0x12
    1fca:	13 8a       	std	Z+19, r1	; 0x13
    1fcc:	14 8a       	std	Z+20, r1	; 0x14
    1fce:	08 95       	ret

00001fd0 <_ZN4Task6enableEv>:
    1fd0:	0f 93       	push	r16
    1fd2:	1f 93       	push	r17
    1fd4:	cf 93       	push	r28
    1fd6:	df 93       	push	r29
    1fd8:	fc 01       	movw	r30, r24
    1fda:	a7 8d       	ldd	r26, Z+31	; 0x1f
    1fdc:	b0 a1       	ldd	r27, Z+32	; 0x20
    1fde:	10 97       	sbiw	r26, 0x00	; 0
    1fe0:	c9 f1       	breq	.+114    	; 0x2054 <_ZN4Task6enableEv+0x84>
    1fe2:	ec 01       	movw	r28, r24
    1fe4:	11 8a       	std	Z+17, r1	; 0x11
    1fe6:	12 8a       	std	Z+18, r1	; 0x12
    1fe8:	13 8a       	std	Z+19, r1	; 0x13
    1fea:	14 8a       	std	Z+20, r1	; 0x14
    1fec:	07 88       	ldd	r0, Z+23	; 0x17
    1fee:	f0 8d       	ldd	r31, Z+24	; 0x18
    1ff0:	e0 2d       	mov	r30, r0
    1ff2:	30 97       	sbiw	r30, 0x00	; 0
    1ff4:	59 f1       	breq	.+86     	; 0x204c <_ZN4Task6enableEv+0x7c>
    1ff6:	88 81       	ld	r24, Y
    1ff8:	81 fd       	sbrc	r24, 1
    1ffa:	28 c0       	rjmp	.+80     	; 0x204c <_ZN4Task6enableEv+0x7c>
    1ffc:	14 96       	adiw	r26, 0x04	; 4
    1ffe:	0d 91       	ld	r16, X+
    2000:	1c 91       	ld	r17, X
    2002:	15 97       	sbiw	r26, 0x05	; 5
    2004:	15 96       	adiw	r26, 0x05	; 5
    2006:	dc 93       	st	X, r29
    2008:	ce 93       	st	-X, r28
    200a:	14 97       	sbiw	r26, 0x04	; 4
    200c:	88 81       	ld	r24, Y
    200e:	82 60       	ori	r24, 0x02	; 2
    2010:	88 83       	st	Y, r24
    2012:	09 95       	icall
    2014:	98 81       	ld	r25, Y
    2016:	80 fb       	bst	r24, 0
    2018:	90 f9       	bld	r25, 0
    201a:	98 83       	st	Y, r25
    201c:	88 81       	ld	r24, Y
    201e:	8d 7f       	andi	r24, 0xFD	; 253
    2020:	88 83       	st	Y, r24
    2022:	ef 8d       	ldd	r30, Y+31	; 0x1f
    2024:	f8 a1       	ldd	r31, Y+32	; 0x20
    2026:	15 83       	std	Z+5, r17	; 0x05
    2028:	04 83       	std	Z+4, r16	; 0x04
    202a:	0e 94 e6 1b 	call	0x37cc	; 0x37cc <millis>
    202e:	09 81       	ldd	r16, Y+1	; 0x01
    2030:	1a 81       	ldd	r17, Y+2	; 0x02
    2032:	2b 81       	ldd	r18, Y+3	; 0x03
    2034:	3c 81       	ldd	r19, Y+4	; 0x04
    2036:	dc 01       	movw	r26, r24
    2038:	cb 01       	movw	r24, r22
    203a:	80 1b       	sub	r24, r16
    203c:	91 0b       	sbc	r25, r17
    203e:	a2 0b       	sbc	r26, r18
    2040:	b3 0b       	sbc	r27, r19
    2042:	8d 83       	std	Y+5, r24	; 0x05
    2044:	9e 83       	std	Y+6, r25	; 0x06
    2046:	af 83       	std	Y+7, r26	; 0x07
    2048:	b8 87       	std	Y+8, r27	; 0x08
    204a:	04 c0       	rjmp	.+8      	; 0x2054 <_ZN4Task6enableEv+0x84>
    204c:	88 81       	ld	r24, Y
    204e:	81 60       	ori	r24, 0x01	; 1
    2050:	88 83       	st	Y, r24
    2052:	eb cf       	rjmp	.-42     	; 0x202a <_ZN4Task6enableEv+0x5a>
    2054:	df 91       	pop	r29
    2056:	cf 91       	pop	r28
    2058:	1f 91       	pop	r17
    205a:	0f 91       	pop	r16
    205c:	08 95       	ret

0000205e <_ZN4Task5delayEm>:
    205e:	cf 92       	push	r12
    2060:	df 92       	push	r13
    2062:	ef 92       	push	r14
    2064:	ff 92       	push	r15
    2066:	0f 93       	push	r16
    2068:	1f 93       	push	r17
    206a:	cf 93       	push	r28
    206c:	df 93       	push	r29
    206e:	ec 01       	movw	r28, r24
    2070:	6a 01       	movw	r12, r20
    2072:	7b 01       	movw	r14, r22
    2074:	45 2b       	or	r20, r21
    2076:	46 2b       	or	r20, r22
    2078:	47 2b       	or	r20, r23
    207a:	21 f4       	brne	.+8      	; 0x2084 <_ZN4Task5delayEm+0x26>
    207c:	c9 80       	ldd	r12, Y+1	; 0x01
    207e:	da 80       	ldd	r13, Y+2	; 0x02
    2080:	eb 80       	ldd	r14, Y+3	; 0x03
    2082:	fc 80       	ldd	r15, Y+4	; 0x04
    2084:	0e 94 e6 1b 	call	0x37cc	; 0x37cc <millis>
    2088:	09 81       	ldd	r16, Y+1	; 0x01
    208a:	1a 81       	ldd	r17, Y+2	; 0x02
    208c:	2b 81       	ldd	r18, Y+3	; 0x03
    208e:	3c 81       	ldd	r19, Y+4	; 0x04
    2090:	dc 01       	movw	r26, r24
    2092:	cb 01       	movw	r24, r22
    2094:	8c 0d       	add	r24, r12
    2096:	9d 1d       	adc	r25, r13
    2098:	ae 1d       	adc	r26, r14
    209a:	bf 1d       	adc	r27, r15
    209c:	80 1b       	sub	r24, r16
    209e:	91 0b       	sbc	r25, r17
    20a0:	a2 0b       	sbc	r26, r18
    20a2:	b3 0b       	sbc	r27, r19
    20a4:	8d 83       	std	Y+5, r24	; 0x05
    20a6:	9e 83       	std	Y+6, r25	; 0x06
    20a8:	af 83       	std	Y+7, r26	; 0x07
    20aa:	b8 87       	std	Y+8, r27	; 0x08
    20ac:	df 91       	pop	r29
    20ae:	cf 91       	pop	r28
    20b0:	1f 91       	pop	r17
    20b2:	0f 91       	pop	r16
    20b4:	ff 90       	pop	r15
    20b6:	ef 90       	pop	r14
    20b8:	df 90       	pop	r13
    20ba:	cf 90       	pop	r12
    20bc:	08 95       	ret

000020be <_ZN4Task11setIntervalEm>:
    20be:	fc 01       	movw	r30, r24
    20c0:	41 83       	std	Z+1, r20	; 0x01
    20c2:	52 83       	std	Z+2, r21	; 0x02
    20c4:	63 83       	std	Z+3, r22	; 0x03
    20c6:	74 83       	std	Z+4, r23	; 0x04
    20c8:	40 e0       	ldi	r20, 0x00	; 0
    20ca:	50 e0       	ldi	r21, 0x00	; 0
    20cc:	ba 01       	movw	r22, r20
    20ce:	0c 94 2f 10 	jmp	0x205e	; 0x205e <_ZN4Task5delayEm>

000020d2 <_ZN4Task7disableEv>:
    20d2:	ef 92       	push	r14
    20d4:	ff 92       	push	r15
    20d6:	0f 93       	push	r16
    20d8:	1f 93       	push	r17
    20da:	cf 93       	push	r28
    20dc:	df 93       	push	r29
    20de:	1f 92       	push	r1
    20e0:	cd b7       	in	r28, 0x3d	; 61
    20e2:	de b7       	in	r29, 0x3e	; 62
    20e4:	dc 01       	movw	r26, r24
    20e6:	9c 91       	ld	r25, X
    20e8:	8c 91       	ld	r24, X
    20ea:	8e 7f       	andi	r24, 0xFE	; 254
    20ec:	8c 93       	st	X, r24
    20ee:	8c 91       	ld	r24, X
    20f0:	8d 7f       	andi	r24, 0xFD	; 253
    20f2:	8c 93       	st	X, r24
    20f4:	89 2f       	mov	r24, r25
    20f6:	81 70       	andi	r24, 0x01	; 1
    20f8:	90 ff       	sbrs	r25, 0
    20fa:	1f c0       	rjmp	.+62     	; 0x213a <_ZN4Task7disableEv+0x68>
    20fc:	59 96       	adiw	r26, 0x19	; 25
    20fe:	2d 91       	ld	r18, X+
    2100:	3c 91       	ld	r19, X
    2102:	5a 97       	sbiw	r26, 0x1a	; 26
    2104:	21 15       	cp	r18, r1
    2106:	31 05       	cpc	r19, r1
    2108:	c1 f0       	breq	.+48     	; 0x213a <_ZN4Task7disableEv+0x68>
    210a:	7d 01       	movw	r14, r26
    210c:	5f 96       	adiw	r26, 0x1f	; 31
    210e:	0d 90       	ld	r0, X+
    2110:	bc 91       	ld	r27, X
    2112:	a0 2d       	mov	r26, r0
    2114:	14 96       	adiw	r26, 0x04	; 4
    2116:	0d 91       	ld	r16, X+
    2118:	1c 91       	ld	r17, X
    211a:	15 97       	sbiw	r26, 0x05	; 5
    211c:	15 96       	adiw	r26, 0x05	; 5
    211e:	fc 92       	st	X, r15
    2120:	ee 92       	st	-X, r14
    2122:	14 97       	sbiw	r26, 0x04	; 4
    2124:	89 83       	std	Y+1, r24	; 0x01
    2126:	f9 01       	movw	r30, r18
    2128:	09 95       	icall
    212a:	d7 01       	movw	r26, r14
    212c:	5f 96       	adiw	r26, 0x1f	; 31
    212e:	ed 91       	ld	r30, X+
    2130:	fc 91       	ld	r31, X
    2132:	90 97       	sbiw	r26, 0x20	; 32
    2134:	15 83       	std	Z+5, r17	; 0x05
    2136:	04 83       	std	Z+4, r16	; 0x04
    2138:	89 81       	ldd	r24, Y+1	; 0x01
    213a:	0f 90       	pop	r0
    213c:	df 91       	pop	r29
    213e:	cf 91       	pop	r28
    2140:	1f 91       	pop	r17
    2142:	0f 91       	pop	r16
    2144:	ff 90       	pop	r15
    2146:	ef 90       	pop	r14
    2148:	08 95       	ret

0000214a <_ZN9Scheduler7addTaskER4Task>:
    214a:	cf 93       	push	r28
    214c:	df 93       	push	r29
    214e:	dc 01       	movw	r26, r24
    2150:	fb 01       	movw	r30, r22
    2152:	90 a3       	std	Z+32, r25	; 0x20
    2154:	87 8f       	std	Z+31, r24	; 0x1f
    2156:	8d 91       	ld	r24, X+
    2158:	9c 91       	ld	r25, X
    215a:	11 97       	sbiw	r26, 0x01	; 1
    215c:	89 2b       	or	r24, r25
    215e:	31 f4       	brne	.+12     	; 0x216c <_ZN9Scheduler7addTaskER4Task+0x22>
    2160:	11 96       	adiw	r26, 0x01	; 1
    2162:	7c 93       	st	X, r23
    2164:	6e 93       	st	-X, r22
    2166:	14 8e       	std	Z+28, r1	; 0x1c
    2168:	13 8e       	std	Z+27, r1	; 0x1b
    216a:	08 c0       	rjmp	.+16     	; 0x217c <_ZN9Scheduler7addTaskER4Task+0x32>
    216c:	12 96       	adiw	r26, 0x02	; 2
    216e:	cd 91       	ld	r28, X+
    2170:	dc 91       	ld	r29, X
    2172:	13 97       	sbiw	r26, 0x03	; 3
    2174:	d4 8f       	std	Z+28, r29	; 0x1c
    2176:	c3 8f       	std	Z+27, r28	; 0x1b
    2178:	7e 8f       	std	Y+30, r23	; 0x1e
    217a:	6d 8f       	std	Y+29, r22	; 0x1d
    217c:	16 8e       	std	Z+30, r1	; 0x1e
    217e:	15 8e       	std	Z+29, r1	; 0x1d
    2180:	13 96       	adiw	r26, 0x03	; 3
    2182:	fc 93       	st	X, r31
    2184:	ee 93       	st	-X, r30
    2186:	12 97       	sbiw	r26, 0x02	; 2
    2188:	df 91       	pop	r29
    218a:	cf 91       	pop	r28
    218c:	08 95       	ret

0000218e <_ZN4TaskC1EmlPFvvEP9SchedulerbPFbvES1_>:
    218e:	2f 92       	push	r2
    2190:	3f 92       	push	r3
    2192:	4f 92       	push	r4
    2194:	5f 92       	push	r5
    2196:	6f 92       	push	r6
    2198:	7f 92       	push	r7
    219a:	8f 92       	push	r8
    219c:	9f 92       	push	r9
    219e:	af 92       	push	r10
    21a0:	cf 92       	push	r12
    21a2:	df 92       	push	r13
    21a4:	ef 92       	push	r14
    21a6:	ff 92       	push	r15
    21a8:	0f 93       	push	r16
    21aa:	1f 93       	push	r17
    21ac:	cf 93       	push	r28
    21ae:	df 93       	push	r29
    21b0:	00 d0       	rcall	.+0      	; 0x21b2 <_ZN4TaskC1EmlPFvvEP9SchedulerbPFbvES1_+0x24>
    21b2:	00 d0       	rcall	.+0      	; 0x21b4 <_ZN4TaskC1EmlPFvvEP9SchedulerbPFbvES1_+0x26>
    21b4:	cd b7       	in	r28, 0x3d	; 61
    21b6:	de b7       	in	r29, 0x3e	; 62
    21b8:	3c 01       	movw	r6, r24
    21ba:	18 01       	movw	r2, r16
    21bc:	29 01       	movw	r4, r18
    21be:	08 8d       	ldd	r16, Y+24	; 0x18
    21c0:	19 8d       	ldd	r17, Y+25	; 0x19
    21c2:	49 83       	std	Y+1, r20	; 0x01
    21c4:	5a 83       	std	Y+2, r21	; 0x02
    21c6:	6b 83       	std	Y+3, r22	; 0x03
    21c8:	7c 83       	std	Y+4, r23	; 0x04
    21ca:	0e 94 d2 0f 	call	0x1fa4	; 0x1fa4 <_ZN4Task5resetEv>
    21ce:	49 81       	ldd	r20, Y+1	; 0x01
    21d0:	5a 81       	ldd	r21, Y+2	; 0x02
    21d2:	6b 81       	ldd	r22, Y+3	; 0x03
    21d4:	7c 81       	ldd	r23, Y+4	; 0x04
    21d6:	c3 01       	movw	r24, r6
    21d8:	0e 94 5f 10 	call	0x20be	; 0x20be <_ZN4Task11setIntervalEm>
    21dc:	f3 01       	movw	r30, r6
    21de:	21 86       	std	Z+9, r2	; 0x09
    21e0:	32 86       	std	Z+10, r3	; 0x0a
    21e2:	43 86       	std	Z+11, r4	; 0x0b
    21e4:	54 86       	std	Z+12, r5	; 0x0c
    21e6:	25 86       	std	Z+13, r2	; 0x0d
    21e8:	36 86       	std	Z+14, r3	; 0x0e
    21ea:	47 86       	std	Z+15, r4	; 0x0f
    21ec:	50 8a       	std	Z+16, r5	; 0x10
    21ee:	f6 8a       	std	Z+22, r15	; 0x16
    21f0:	e5 8a       	std	Z+21, r14	; 0x15
    21f2:	90 8e       	std	Z+24, r9	; 0x18
    21f4:	87 8a       	std	Z+23, r8	; 0x17
    21f6:	12 8f       	std	Z+26, r17	; 0x1a
    21f8:	01 8f       	std	Z+25, r16	; 0x19
    21fa:	c1 14       	cp	r12, r1
    21fc:	d1 04       	cpc	r13, r1
    21fe:	21 f0       	breq	.+8      	; 0x2208 <_ZN4TaskC1EmlPFvvEP9SchedulerbPFbvES1_+0x7a>
    2200:	b3 01       	movw	r22, r6
    2202:	c6 01       	movw	r24, r12
    2204:	0e 94 a5 10 	call	0x214a	; 0x214a <_ZN9Scheduler7addTaskER4Task>
    2208:	aa 20       	and	r10, r10
    220a:	c1 f0       	breq	.+48     	; 0x223c <_ZN4TaskC1EmlPFvvEP9SchedulerbPFbvES1_+0xae>
    220c:	c3 01       	movw	r24, r6
    220e:	0f 90       	pop	r0
    2210:	0f 90       	pop	r0
    2212:	0f 90       	pop	r0
    2214:	0f 90       	pop	r0
    2216:	df 91       	pop	r29
    2218:	cf 91       	pop	r28
    221a:	1f 91       	pop	r17
    221c:	0f 91       	pop	r16
    221e:	ff 90       	pop	r15
    2220:	ef 90       	pop	r14
    2222:	df 90       	pop	r13
    2224:	cf 90       	pop	r12
    2226:	af 90       	pop	r10
    2228:	9f 90       	pop	r9
    222a:	8f 90       	pop	r8
    222c:	7f 90       	pop	r7
    222e:	6f 90       	pop	r6
    2230:	5f 90       	pop	r5
    2232:	4f 90       	pop	r4
    2234:	3f 90       	pop	r3
    2236:	2f 90       	pop	r2
    2238:	0c 94 e8 0f 	jmp	0x1fd0	; 0x1fd0 <_ZN4Task6enableEv>
    223c:	0f 90       	pop	r0
    223e:	0f 90       	pop	r0
    2240:	0f 90       	pop	r0
    2242:	0f 90       	pop	r0
    2244:	df 91       	pop	r29
    2246:	cf 91       	pop	r28
    2248:	1f 91       	pop	r17
    224a:	0f 91       	pop	r16
    224c:	ff 90       	pop	r15
    224e:	ef 90       	pop	r14
    2250:	df 90       	pop	r13
    2252:	cf 90       	pop	r12
    2254:	af 90       	pop	r10
    2256:	9f 90       	pop	r9
    2258:	8f 90       	pop	r8
    225a:	7f 90       	pop	r7
    225c:	6f 90       	pop	r6
    225e:	5f 90       	pop	r5
    2260:	4f 90       	pop	r4
    2262:	3f 90       	pop	r3
    2264:	2f 90       	pop	r2
    2266:	08 95       	ret

00002268 <_ZN9Scheduler7executeEv>:
    2268:	cf 92       	push	r12
    226a:	df 92       	push	r13
    226c:	ef 92       	push	r14
    226e:	ff 92       	push	r15
    2270:	0f 93       	push	r16
    2272:	1f 93       	push	r17
    2274:	cf 93       	push	r28
    2276:	df 93       	push	r29
    2278:	ec 01       	movw	r28, r24
    227a:	88 81       	ld	r24, Y
    227c:	99 81       	ldd	r25, Y+1	; 0x01
    227e:	9d 83       	std	Y+5, r25	; 0x05
    2280:	8c 83       	std	Y+4, r24	; 0x04
    2282:	8c 81       	ldd	r24, Y+4	; 0x04
    2284:	9d 81       	ldd	r25, Y+5	; 0x05
    2286:	00 97       	sbiw	r24, 0x00	; 0
    2288:	09 f4       	brne	.+2      	; 0x228c <_ZN9Scheduler7executeEv+0x24>
    228a:	5c c0       	rjmp	.+184    	; 0x2344 <_ZN9Scheduler7executeEv+0xdc>
    228c:	fc 01       	movw	r30, r24
    228e:	20 81       	ld	r18, Z
    2290:	20 ff       	sbrs	r18, 0
    2292:	53 c0       	rjmp	.+166    	; 0x233a <_ZN9Scheduler7executeEv+0xd2>
    2294:	41 85       	ldd	r20, Z+9	; 0x09
    2296:	52 85       	ldd	r21, Z+10	; 0x0a
    2298:	63 85       	ldd	r22, Z+11	; 0x0b
    229a:	74 85       	ldd	r23, Z+12	; 0x0c
    229c:	45 2b       	or	r20, r21
    229e:	46 2b       	or	r20, r22
    22a0:	47 2b       	or	r20, r23
    22a2:	19 f4       	brne	.+6      	; 0x22aa <_ZN9Scheduler7executeEv+0x42>
    22a4:	0e 94 69 10 	call	0x20d2	; 0x20d2 <_ZN4Task7disableEv>
    22a8:	48 c0       	rjmp	.+144    	; 0x233a <_ZN9Scheduler7executeEv+0xd2>
    22aa:	0e 94 e6 1b 	call	0x37cc	; 0x37cc <millis>
    22ae:	ec 81       	ldd	r30, Y+4	; 0x04
    22b0:	fd 81       	ldd	r31, Y+5	; 0x05
    22b2:	c1 80       	ldd	r12, Z+1	; 0x01
    22b4:	d2 80       	ldd	r13, Z+2	; 0x02
    22b6:	e3 80       	ldd	r14, Z+3	; 0x03
    22b8:	f4 80       	ldd	r15, Z+4	; 0x04
    22ba:	05 81       	ldd	r16, Z+5	; 0x05
    22bc:	16 81       	ldd	r17, Z+6	; 0x06
    22be:	27 81       	ldd	r18, Z+7	; 0x07
    22c0:	30 85       	ldd	r19, Z+8	; 0x08
    22c2:	ab 01       	movw	r20, r22
    22c4:	bc 01       	movw	r22, r24
    22c6:	40 1b       	sub	r20, r16
    22c8:	51 0b       	sbc	r21, r17
    22ca:	62 0b       	sbc	r22, r18
    22cc:	73 0b       	sbc	r23, r19
    22ce:	4c 15       	cp	r20, r12
    22d0:	5d 05       	cpc	r21, r13
    22d2:	6e 05       	cpc	r22, r14
    22d4:	7f 05       	cpc	r23, r15
    22d6:	88 f1       	brcs	.+98     	; 0x233a <_ZN9Scheduler7executeEv+0xd2>
    22d8:	41 85       	ldd	r20, Z+9	; 0x09
    22da:	52 85       	ldd	r21, Z+10	; 0x0a
    22dc:	63 85       	ldd	r22, Z+11	; 0x0b
    22de:	74 85       	ldd	r23, Z+12	; 0x0c
    22e0:	14 16       	cp	r1, r20
    22e2:	15 06       	cpc	r1, r21
    22e4:	16 06       	cpc	r1, r22
    22e6:	17 06       	cpc	r1, r23
    22e8:	64 f4       	brge	.+24     	; 0x2302 <_ZN9Scheduler7executeEv+0x9a>
    22ea:	41 85       	ldd	r20, Z+9	; 0x09
    22ec:	52 85       	ldd	r21, Z+10	; 0x0a
    22ee:	63 85       	ldd	r22, Z+11	; 0x0b
    22f0:	74 85       	ldd	r23, Z+12	; 0x0c
    22f2:	41 50       	subi	r20, 0x01	; 1
    22f4:	51 09       	sbc	r21, r1
    22f6:	61 09       	sbc	r22, r1
    22f8:	71 09       	sbc	r23, r1
    22fa:	41 87       	std	Z+9, r20	; 0x09
    22fc:	52 87       	std	Z+10, r21	; 0x0a
    22fe:	63 87       	std	Z+11, r22	; 0x0b
    2300:	74 87       	std	Z+12, r23	; 0x0c
    2302:	41 89       	ldd	r20, Z+17	; 0x11
    2304:	52 89       	ldd	r21, Z+18	; 0x12
    2306:	63 89       	ldd	r22, Z+19	; 0x13
    2308:	74 89       	ldd	r23, Z+20	; 0x14
    230a:	4f 5f       	subi	r20, 0xFF	; 255
    230c:	5f 4f       	sbci	r21, 0xFF	; 255
    230e:	6f 4f       	sbci	r22, 0xFF	; 255
    2310:	7f 4f       	sbci	r23, 0xFF	; 255
    2312:	41 8b       	std	Z+17, r20	; 0x11
    2314:	52 8b       	std	Z+18, r21	; 0x12
    2316:	63 8b       	std	Z+19, r22	; 0x13
    2318:	74 8b       	std	Z+20, r23	; 0x14
    231a:	d9 01       	movw	r26, r18
    231c:	c8 01       	movw	r24, r16
    231e:	8c 0d       	add	r24, r12
    2320:	9d 1d       	adc	r25, r13
    2322:	ae 1d       	adc	r26, r14
    2324:	bf 1d       	adc	r27, r15
    2326:	85 83       	std	Z+5, r24	; 0x05
    2328:	96 83       	std	Z+6, r25	; 0x06
    232a:	a7 83       	std	Z+7, r26	; 0x07
    232c:	b0 87       	std	Z+8, r27	; 0x08
    232e:	05 88       	ldd	r0, Z+21	; 0x15
    2330:	f6 89       	ldd	r31, Z+22	; 0x16
    2332:	e0 2d       	mov	r30, r0
    2334:	30 97       	sbiw	r30, 0x00	; 0
    2336:	09 f0       	breq	.+2      	; 0x233a <_ZN9Scheduler7executeEv+0xd2>
    2338:	09 95       	icall
    233a:	ec 81       	ldd	r30, Y+4	; 0x04
    233c:	fd 81       	ldd	r31, Y+5	; 0x05
    233e:	85 8d       	ldd	r24, Z+29	; 0x1d
    2340:	96 8d       	ldd	r25, Z+30	; 0x1e
    2342:	9d cf       	rjmp	.-198    	; 0x227e <_ZN9Scheduler7executeEv+0x16>
    2344:	df 91       	pop	r29
    2346:	cf 91       	pop	r28
    2348:	1f 91       	pop	r17
    234a:	0f 91       	pop	r16
    234c:	ff 90       	pop	r15
    234e:	ef 90       	pop	r14
    2350:	df 90       	pop	r13
    2352:	cf 90       	pop	r12
    2354:	08 95       	ret

00002356 <_Z10connectUDPv>:
    2356:	64 ea       	ldi	r22, 0xA4	; 164
    2358:	74 e0       	ldi	r23, 0x04	; 4
    235a:	8c eb       	ldi	r24, 0xBC	; 188
    235c:	97 e0       	ldi	r25, 0x07	; 7
    235e:	0e 94 b1 18 	call	0x3162	; 0x3162 <_ZN5Print7printlnEPKc>
    2362:	64 e6       	ldi	r22, 0x64	; 100
    2364:	70 e0       	ldi	r23, 0x00	; 0
    2366:	80 e0       	ldi	r24, 0x00	; 0
    2368:	90 e0       	ldi	r25, 0x00	; 0
    236a:	0e 94 17 1c 	call	0x382e	; 0x382e <delay>
    236e:	62 eb       	ldi	r22, 0xB2	; 178
    2370:	74 e0       	ldi	r23, 0x04	; 4
    2372:	8c eb       	ldi	r24, 0xBC	; 188
    2374:	97 e0       	ldi	r25, 0x07	; 7
    2376:	0e 94 b1 18 	call	0x3162	; 0x3162 <_ZN5Print7printlnEPKc>
    237a:	64 e6       	ldi	r22, 0x64	; 100
    237c:	70 e0       	ldi	r23, 0x00	; 0
    237e:	80 e0       	ldi	r24, 0x00	; 0
    2380:	90 e0       	ldi	r25, 0x00	; 0
    2382:	0e 94 17 1c 	call	0x382e	; 0x382e <delay>
    2386:	6a ed       	ldi	r22, 0xDA	; 218
    2388:	74 e0       	ldi	r23, 0x04	; 4
    238a:	8c eb       	ldi	r24, 0xBC	; 188
    238c:	97 e0       	ldi	r25, 0x07	; 7
    238e:	0e 94 38 1b 	call	0x3670	; 0x3670 <_ZN6Stream4findEPc>
    2392:	88 23       	and	r24, r24
    2394:	01 f3       	breq	.-64     	; 0x2356 <_Z10connectUDPv>
    2396:	61 e0       	ldi	r22, 0x01	; 1
    2398:	81 e1       	ldi	r24, 0x11	; 17
    239a:	0e 94 05 1d 	call	0x3a0a	; 0x3a0a <digitalWrite>
    239e:	64 ef       	ldi	r22, 0xF4	; 244
    23a0:	71 e0       	ldi	r23, 0x01	; 1
    23a2:	80 e0       	ldi	r24, 0x00	; 0
    23a4:	90 e0       	ldi	r25, 0x00	; 0
    23a6:	0e 94 17 1c 	call	0x382e	; 0x382e <delay>
    23aa:	60 e0       	ldi	r22, 0x00	; 0
    23ac:	81 e1       	ldi	r24, 0x11	; 17
    23ae:	0e 94 05 1d 	call	0x3a0a	; 0x3a0a <digitalWrite>
    23b2:	64 ef       	ldi	r22, 0xF4	; 244
    23b4:	71 e0       	ldi	r23, 0x01	; 1
    23b6:	80 e0       	ldi	r24, 0x00	; 0
    23b8:	90 e0       	ldi	r25, 0x00	; 0
    23ba:	0e 94 17 1c 	call	0x382e	; 0x382e <delay>
    23be:	61 e0       	ldi	r22, 0x01	; 1
    23c0:	81 e1       	ldi	r24, 0x11	; 17
    23c2:	0c 94 05 1d 	jmp	0x3a0a	; 0x3a0a <digitalWrite>

000023c6 <setup>:
    23c6:	61 e0       	ldi	r22, 0x01	; 1
    23c8:	81 e1       	ldi	r24, 0x11	; 17
    23ca:	0e 94 c9 1c 	call	0x3992	; 0x3992 <pinMode>
    23ce:	60 e0       	ldi	r22, 0x00	; 0
    23d0:	81 e1       	ldi	r24, 0x11	; 17
    23d2:	0e 94 05 1d 	call	0x3a0a	; 0x3a0a <digitalWrite>
    23d6:	61 e0       	ldi	r22, 0x01	; 1
    23d8:	82 e0       	ldi	r24, 0x02	; 2
    23da:	0e 94 c9 1c 	call	0x3992	; 0x3992 <pinMode>
    23de:	61 e0       	ldi	r22, 0x01	; 1
    23e0:	82 e0       	ldi	r24, 0x02	; 2
    23e2:	0e 94 05 1d 	call	0x3a0a	; 0x3a0a <digitalWrite>
    23e6:	60 e0       	ldi	r22, 0x00	; 0
    23e8:	85 e0       	ldi	r24, 0x05	; 5
    23ea:	0e 94 c9 1c 	call	0x3992	; 0x3992 <pinMode>
    23ee:	61 e0       	ldi	r22, 0x01	; 1
    23f0:	85 e0       	ldi	r24, 0x05	; 5
    23f2:	0e 94 05 1d 	call	0x3a0a	; 0x3a0a <digitalWrite>
    23f6:	61 e0       	ldi	r22, 0x01	; 1
    23f8:	83 e0       	ldi	r24, 0x03	; 3
    23fa:	0e 94 c9 1c 	call	0x3992	; 0x3992 <pinMode>
    23fe:	60 e0       	ldi	r22, 0x00	; 0
    2400:	83 e0       	ldi	r24, 0x03	; 3
    2402:	0e 94 05 1d 	call	0x3a0a	; 0x3a0a <digitalWrite>
    2406:	60 e0       	ldi	r22, 0x00	; 0
    2408:	88 e0       	ldi	r24, 0x08	; 8
    240a:	0e 94 c9 1c 	call	0x3992	; 0x3992 <pinMode>
    240e:	61 e0       	ldi	r22, 0x01	; 1
    2410:	88 e0       	ldi	r24, 0x08	; 8
    2412:	0e 94 05 1d 	call	0x3a0a	; 0x3a0a <digitalWrite>
    2416:	60 e0       	ldi	r22, 0x00	; 0
    2418:	8e e0       	ldi	r24, 0x0E	; 14
    241a:	0e 94 c9 1c 	call	0x3992	; 0x3992 <pinMode>
    241e:	64 e6       	ldi	r22, 0x64	; 100
    2420:	70 e0       	ldi	r23, 0x00	; 0
    2422:	80 e0       	ldi	r24, 0x00	; 0
    2424:	90 e0       	ldi	r25, 0x00	; 0
    2426:	0e 94 17 1c 	call	0x382e	; 0x382e <delay>
    242a:	40 e8       	ldi	r20, 0x80	; 128
    242c:	55 e2       	ldi	r21, 0x25	; 37
    242e:	60 e0       	ldi	r22, 0x00	; 0
    2430:	70 e0       	ldi	r23, 0x00	; 0
    2432:	8b e6       	ldi	r24, 0x6B	; 107
    2434:	96 e0       	ldi	r25, 0x06	; 6
    2436:	0e 94 13 16 	call	0x2c26	; 0x2c26 <_ZN14SoftwareSerial5beginEl>
    243a:	6d ed       	ldi	r22, 0xDD	; 221
    243c:	74 e0       	ldi	r23, 0x04	; 4
    243e:	8b e6       	ldi	r24, 0x6B	; 107
    2440:	96 e0       	ldi	r25, 0x06	; 6
    2442:	0e 94 b1 18 	call	0x3162	; 0x3162 <_ZN5Print7printlnEPKc>
    2446:	64 e6       	ldi	r22, 0x64	; 100
    2448:	70 e0       	ldi	r23, 0x00	; 0
    244a:	80 e0       	ldi	r24, 0x00	; 0
    244c:	90 e0       	ldi	r25, 0x00	; 0
    244e:	0e 94 17 1c 	call	0x382e	; 0x382e <delay>
    2452:	26 e0       	ldi	r18, 0x06	; 6
    2454:	40 e0       	ldi	r20, 0x00	; 0
    2456:	56 e9       	ldi	r21, 0x96	; 150
    2458:	60 e0       	ldi	r22, 0x00	; 0
    245a:	70 e0       	ldi	r23, 0x00	; 0
    245c:	8c eb       	ldi	r24, 0xBC	; 188
    245e:	97 e0       	ldi	r25, 0x07	; 7
    2460:	0e 94 67 17 	call	0x2ece	; 0x2ece <_ZN14HardwareSerial5beginEmh>
    2464:	0e 94 ab 11 	call	0x2356	; 0x2356 <_Z10connectUDPv>
    2468:	0e 94 02 0b 	call	0x1604	; 0x1604 <_Z8i2c_initv>
    246c:	0e 94 68 0b 	call	0x16d0	; 0x16d0 <_Z13i2c_OLED_initv>
    2470:	6a e0       	ldi	r22, 0x0A	; 10
    2472:	70 e0       	ldi	r23, 0x00	; 0
    2474:	80 e0       	ldi	r24, 0x00	; 0
    2476:	90 e0       	ldi	r25, 0x00	; 0
    2478:	0e 94 17 1c 	call	0x382e	; 0x382e <delay>
    247c:	0e 94 39 0c 	call	0x1872	; 0x1872 <_Z13clear_displayv>
    2480:	62 e3       	ldi	r22, 0x32	; 50
    2482:	70 e0       	ldi	r23, 0x00	; 0
    2484:	80 e0       	ldi	r24, 0x00	; 0
    2486:	90 e0       	ldi	r25, 0x00	; 0
    2488:	0e 94 17 1c 	call	0x382e	; 0x382e <delay>
    248c:	80 e2       	ldi	r24, 0x20	; 32
    248e:	0e 94 60 0b 	call	0x16c0	; 0x16c0 <_Z17i2c_OLED_send_cmdh>
    2492:	82 e0       	ldi	r24, 0x02	; 2
    2494:	0e 94 60 0b 	call	0x16c0	; 0x16c0 <_Z17i2c_OLED_send_cmdh>
    2498:	86 ea       	ldi	r24, 0xA6	; 166
    249a:	0e 94 60 0b 	call	0x16c0	; 0x16c0 <_Z17i2c_OLED_send_cmdh>
    249e:	a2 e6       	ldi	r26, 0x62	; 98
    24a0:	b6 e0       	ldi	r27, 0x06	; 6
    24a2:	15 96       	adiw	r26, 0x05	; 5
    24a4:	1c 92       	st	X, r1
    24a6:	1e 92       	st	-X, r1
    24a8:	14 97       	sbiw	r26, 0x04	; 4
    24aa:	e1 e4       	ldi	r30, 0x41	; 65
    24ac:	f6 e0       	ldi	r31, 0x06	; 6
    24ae:	b0 a3       	std	Z+32, r27	; 0x20
    24b0:	a7 8f       	std	Z+31, r26	; 0x1f
    24b2:	11 96       	adiw	r26, 0x01	; 1
    24b4:	fc 93       	st	X, r31
    24b6:	ee 93       	st	-X, r30
    24b8:	14 8e       	std	Z+28, r1	; 0x1c
    24ba:	13 8e       	std	Z+27, r1	; 0x1b
    24bc:	16 8e       	std	Z+30, r1	; 0x1e
    24be:	15 8e       	std	Z+29, r1	; 0x1d
    24c0:	13 96       	adiw	r26, 0x03	; 3
    24c2:	fc 93       	st	X, r31
    24c4:	ee 93       	st	-X, r30
    24c6:	12 97       	sbiw	r26, 0x02	; 2
    24c8:	60 e2       	ldi	r22, 0x20	; 32
    24ca:	76 e0       	ldi	r23, 0x06	; 6
    24cc:	cd 01       	movw	r24, r26
    24ce:	0e 94 a5 10 	call	0x214a	; 0x214a <_ZN9Scheduler7addTaskER4Task>
    24d2:	6f ef       	ldi	r22, 0xFF	; 255
    24d4:	75 e0       	ldi	r23, 0x05	; 5
    24d6:	82 e6       	ldi	r24, 0x62	; 98
    24d8:	96 e0       	ldi	r25, 0x06	; 6
    24da:	0e 94 a5 10 	call	0x214a	; 0x214a <_ZN9Scheduler7addTaskER4Task>
    24de:	6e ed       	ldi	r22, 0xDE	; 222
    24e0:	75 e0       	ldi	r23, 0x05	; 5
    24e2:	82 e6       	ldi	r24, 0x62	; 98
    24e4:	96 e0       	ldi	r25, 0x06	; 6
    24e6:	0e 94 a5 10 	call	0x214a	; 0x214a <_ZN9Scheduler7addTaskER4Task>
    24ea:	6d eb       	ldi	r22, 0xBD	; 189
    24ec:	75 e0       	ldi	r23, 0x05	; 5
    24ee:	82 e6       	ldi	r24, 0x62	; 98
    24f0:	96 e0       	ldi	r25, 0x06	; 6
    24f2:	0e 94 a5 10 	call	0x214a	; 0x214a <_ZN9Scheduler7addTaskER4Task>
    24f6:	6c e9       	ldi	r22, 0x9C	; 156
    24f8:	75 e0       	ldi	r23, 0x05	; 5
    24fa:	82 e6       	ldi	r24, 0x62	; 98
    24fc:	96 e0       	ldi	r25, 0x06	; 6
    24fe:	0e 94 a5 10 	call	0x214a	; 0x214a <_ZN9Scheduler7addTaskER4Task>
    2502:	6b e7       	ldi	r22, 0x7B	; 123
    2504:	75 e0       	ldi	r23, 0x05	; 5
    2506:	82 e6       	ldi	r24, 0x62	; 98
    2508:	96 e0       	ldi	r25, 0x06	; 6
    250a:	0e 94 a5 10 	call	0x214a	; 0x214a <_ZN9Scheduler7addTaskER4Task>
    250e:	81 e4       	ldi	r24, 0x41	; 65
    2510:	96 e0       	ldi	r25, 0x06	; 6
    2512:	0e 94 e8 0f 	call	0x1fd0	; 0x1fd0 <_ZN4Task6enableEv>
    2516:	80 e2       	ldi	r24, 0x20	; 32
    2518:	96 e0       	ldi	r25, 0x06	; 6
    251a:	0e 94 e8 0f 	call	0x1fd0	; 0x1fd0 <_ZN4Task6enableEv>
    251e:	8f ef       	ldi	r24, 0xFF	; 255
    2520:	95 e0       	ldi	r25, 0x05	; 5
    2522:	0e 94 e8 0f 	call	0x1fd0	; 0x1fd0 <_ZN4Task6enableEv>
    2526:	8e ed       	ldi	r24, 0xDE	; 222
    2528:	95 e0       	ldi	r25, 0x05	; 5
    252a:	0e 94 e8 0f 	call	0x1fd0	; 0x1fd0 <_ZN4Task6enableEv>
    252e:	8d eb       	ldi	r24, 0xBD	; 189
    2530:	95 e0       	ldi	r25, 0x05	; 5
    2532:	0e 94 e8 0f 	call	0x1fd0	; 0x1fd0 <_ZN4Task6enableEv>
    2536:	8c e9       	ldi	r24, 0x9C	; 156
    2538:	95 e0       	ldi	r25, 0x05	; 5
    253a:	0e 94 e8 0f 	call	0x1fd0	; 0x1fd0 <_ZN4Task6enableEv>
    253e:	8b e7       	ldi	r24, 0x7B	; 123
    2540:	95 e0       	ldi	r25, 0x05	; 5
    2542:	0c 94 e8 0f 	jmp	0x1fd0	; 0x1fd0 <_ZN4Task6enableEv>

00002546 <_Z7sendUDPv>:
    2546:	6e ee       	ldi	r22, 0xEE	; 238
    2548:	74 e0       	ldi	r23, 0x04	; 4
    254a:	8c eb       	ldi	r24, 0xBC	; 188
    254c:	97 e0       	ldi	r25, 0x07	; 7
    254e:	0e 94 b1 18 	call	0x3162	; 0x3162 <_ZN5Print7printlnEPKc>
    2552:	6e ef       	ldi	r22, 0xFE	; 254
    2554:	74 e0       	ldi	r23, 0x04	; 4
    2556:	8c eb       	ldi	r24, 0xBC	; 188
    2558:	97 e0       	ldi	r25, 0x07	; 7
    255a:	0e 94 38 1b 	call	0x3670	; 0x3670 <_ZN6Stream4findEPc>
    255e:	88 23       	and	r24, r24
    2560:	09 f4       	brne	.+2      	; 0x2564 <_Z7sendUDPv+0x1e>
    2562:	4c c0       	rjmp	.+152    	; 0x25fc <_Z7sendUDPv+0xb6>
    2564:	60 e0       	ldi	r22, 0x00	; 0
    2566:	75 e0       	ldi	r23, 0x05	; 5
    2568:	8c eb       	ldi	r24, 0xBC	; 188
    256a:	97 e0       	ldi	r25, 0x07	; 7
    256c:	0e 94 a4 18 	call	0x3148	; 0x3148 <_ZN5Print5printEPKc>
    2570:	40 91 66 07 	lds	r20, 0x0766
    2574:	50 91 67 07 	lds	r21, 0x0767
    2578:	60 91 68 07 	lds	r22, 0x0768
    257c:	70 91 69 07 	lds	r23, 0x0769
    2580:	22 e0       	ldi	r18, 0x02	; 2
    2582:	30 e0       	ldi	r19, 0x00	; 0
    2584:	8c eb       	ldi	r24, 0xBC	; 188
    2586:	97 e0       	ldi	r25, 0x07	; 7
    2588:	0e 94 48 1a 	call	0x3490	; 0x3490 <_ZN5Print5printEdi>
    258c:	64 e0       	ldi	r22, 0x04	; 4
    258e:	75 e0       	ldi	r23, 0x05	; 5
    2590:	8c eb       	ldi	r24, 0xBC	; 188
    2592:	97 e0       	ldi	r25, 0x07	; 7
    2594:	0e 94 a4 18 	call	0x3148	; 0x3148 <_ZN5Print5printEPKc>
    2598:	8a e8       	ldi	r24, 0x8A	; 138
    259a:	96 e0       	ldi	r25, 0x06	; 6
    259c:	0e 94 d3 02 	call	0x5a6	; 0x5a6 <_ZN15TinyGPSLocation3latEv>
    25a0:	ab 01       	movw	r20, r22
    25a2:	bc 01       	movw	r22, r24
    25a4:	26 e0       	ldi	r18, 0x06	; 6
    25a6:	30 e0       	ldi	r19, 0x00	; 0
    25a8:	8c eb       	ldi	r24, 0xBC	; 188
    25aa:	97 e0       	ldi	r25, 0x07	; 7
    25ac:	0e 94 48 1a 	call	0x3490	; 0x3490 <_ZN5Print5printEdi>
    25b0:	64 e0       	ldi	r22, 0x04	; 4
    25b2:	75 e0       	ldi	r23, 0x05	; 5
    25b4:	8c eb       	ldi	r24, 0xBC	; 188
    25b6:	97 e0       	ldi	r25, 0x07	; 7
    25b8:	0e 94 a4 18 	call	0x3148	; 0x3148 <_ZN5Print5printEPKc>
    25bc:	8a e8       	ldi	r24, 0x8A	; 138
    25be:	96 e0       	ldi	r25, 0x06	; 6
    25c0:	0e 94 ff 02 	call	0x5fe	; 0x5fe <_ZN15TinyGPSLocation3lngEv>
    25c4:	ab 01       	movw	r20, r22
    25c6:	bc 01       	movw	r22, r24
    25c8:	26 e0       	ldi	r18, 0x06	; 6
    25ca:	30 e0       	ldi	r19, 0x00	; 0
    25cc:	8c eb       	ldi	r24, 0xBC	; 188
    25ce:	97 e0       	ldi	r25, 0x07	; 7
    25d0:	0e 94 48 1a 	call	0x3490	; 0x3490 <_ZN5Print5printEdi>
    25d4:	66 e0       	ldi	r22, 0x06	; 6
    25d6:	75 e0       	ldi	r23, 0x05	; 5
    25d8:	8c eb       	ldi	r24, 0xBC	; 188
    25da:	97 e0       	ldi	r25, 0x07	; 7
    25dc:	0e 94 a4 18 	call	0x3148	; 0x3148 <_ZN5Print5printEPKc>
    25e0:	60 91 00 01 	lds	r22, 0x0100
    25e4:	70 91 01 01 	lds	r23, 0x0101
    25e8:	8c eb       	ldi	r24, 0xBC	; 188
    25ea:	97 e0       	ldi	r25, 0x07	; 7
    25ec:	0e 94 a4 18 	call	0x3148	; 0x3148 <_ZN5Print5printEPKc>
    25f0:	6b ef       	ldi	r22, 0xFB	; 251
    25f2:	74 e0       	ldi	r23, 0x04	; 4
    25f4:	8c eb       	ldi	r24, 0xBC	; 188
    25f6:	97 e0       	ldi	r25, 0x07	; 7
    25f8:	0c 94 b1 18 	jmp	0x3162	; 0x3162 <_ZN5Print7printlnEPKc>
    25fc:	68 e0       	ldi	r22, 0x08	; 8
    25fe:	75 e0       	ldi	r23, 0x05	; 5
    2600:	8c eb       	ldi	r24, 0xBC	; 188
    2602:	97 e0       	ldi	r25, 0x07	; 7
    2604:	0e 94 38 1b 	call	0x3670	; 0x3670 <_ZN6Stream4findEPc>
    2608:	81 11       	cpse	r24, r1
    260a:	0c 94 ab 11 	jmp	0x2356	; 0x2356 <_Z10connectUDPv>
    260e:	08 95       	ret

00002610 <_Z11TickFct_UDPv>:
    2610:	0c 94 a3 12 	jmp	0x2546	; 0x2546 <_Z7sendUDPv>

00002614 <loop>:
    2614:	82 e6       	ldi	r24, 0x62	; 98
    2616:	96 e0       	ldi	r25, 0x06	; 6
    2618:	0c 94 34 11 	jmp	0x2268	; 0x2268 <_ZN9Scheduler7executeEv>

0000261c <_GLOBAL__sub_I_myFont>:
    261c:	8f 92       	push	r8
    261e:	9f 92       	push	r9
    2620:	af 92       	push	r10
    2622:	cf 92       	push	r12
    2624:	df 92       	push	r13
    2626:	ef 92       	push	r14
    2628:	ff 92       	push	r15
    262a:	0f 93       	push	r16
    262c:	1f 93       	push	r17
    262e:	69 e0       	ldi	r22, 0x09	; 9
    2630:	86 e5       	ldi	r24, 0x56	; 86
    2632:	97 e0       	ldi	r25, 0x07	; 7
    2634:	0e 94 2a 0a 	call	0x1454	; 0x1454 <_ZN7OneWireC1Eh>
    2638:	66 e5       	ldi	r22, 0x56	; 86
    263a:	77 e0       	ldi	r23, 0x07	; 7
    263c:	83 e4       	ldi	r24, 0x43	; 67
    263e:	97 e0       	ldi	r25, 0x07	; 7
    2640:	0e 94 ea 05 	call	0xbd4	; 0xbd4 <_ZN17DallasTemperatureC1EP7OneWire>
    2644:	8a e8       	ldi	r24, 0x8A	; 138
    2646:	96 e0       	ldi	r25, 0x06	; 6
    2648:	0e 94 37 01 	call	0x26e	; 0x26e <_ZN11TinyGPSPlusC1Ev>
    264c:	20 e0       	ldi	r18, 0x00	; 0
    264e:	47 e0       	ldi	r20, 0x07	; 7
    2650:	66 e0       	ldi	r22, 0x06	; 6
    2652:	8b e6       	ldi	r24, 0x6B	; 107
    2654:	96 e0       	ldi	r25, 0x06	; 6
    2656:	0e 94 e8 15 	call	0x2bd0	; 0x2bd0 <_ZN14SoftwareSerialC1Ehhb>
    265a:	e2 e6       	ldi	r30, 0x62	; 98
    265c:	f6 e0       	ldi	r31, 0x06	; 6
    265e:	11 82       	std	Z+1, r1	; 0x01
    2660:	10 82       	st	Z, r1
    2662:	13 82       	std	Z+3, r1	; 0x03
    2664:	12 82       	std	Z+2, r1	; 0x02
    2666:	15 82       	std	Z+5, r1	; 0x05
    2668:	14 82       	std	Z+4, r1	; 0x04
    266a:	1f 92       	push	r1
    266c:	1f 92       	push	r1
    266e:	81 2c       	mov	r8, r1
    2670:	91 2c       	mov	r9, r1
    2672:	aa 24       	eor	r10, r10
    2674:	a3 94       	inc	r10
    2676:	6f 01       	movw	r12, r30
    2678:	8c ee       	ldi	r24, 0xEC	; 236
    267a:	e8 2e       	mov	r14, r24
    267c:	8a e0       	ldi	r24, 0x0A	; 10
    267e:	f8 2e       	mov	r15, r24
    2680:	0f ef       	ldi	r16, 0xFF	; 255
    2682:	1f ef       	ldi	r17, 0xFF	; 255
    2684:	98 01       	movw	r18, r16
    2686:	48 ee       	ldi	r20, 0xE8	; 232
    2688:	53 e0       	ldi	r21, 0x03	; 3
    268a:	60 e0       	ldi	r22, 0x00	; 0
    268c:	70 e0       	ldi	r23, 0x00	; 0
    268e:	81 e4       	ldi	r24, 0x41	; 65
    2690:	96 e0       	ldi	r25, 0x06	; 6
    2692:	0e 94 c7 10 	call	0x218e	; 0x218e <_ZN4TaskC1EmlPFvvEP9SchedulerbPFbvES1_>
    2696:	1f 92       	push	r1
    2698:	1f 92       	push	r1
    269a:	91 e1       	ldi	r25, 0x11	; 17
    269c:	e9 2e       	mov	r14, r25
    269e:	9e e0       	ldi	r25, 0x0E	; 14
    26a0:	f9 2e       	mov	r15, r25
    26a2:	0f ef       	ldi	r16, 0xFF	; 255
    26a4:	1f ef       	ldi	r17, 0xFF	; 255
    26a6:	98 01       	movw	r18, r16
    26a8:	48 ec       	ldi	r20, 0xC8	; 200
    26aa:	50 e0       	ldi	r21, 0x00	; 0
    26ac:	60 e0       	ldi	r22, 0x00	; 0
    26ae:	70 e0       	ldi	r23, 0x00	; 0
    26b0:	80 e2       	ldi	r24, 0x20	; 32
    26b2:	96 e0       	ldi	r25, 0x06	; 6
    26b4:	0e 94 c7 10 	call	0x218e	; 0x218e <_ZN4TaskC1EmlPFvvEP9SchedulerbPFbvES1_>
    26b8:	1f 92       	push	r1
    26ba:	1f 92       	push	r1
    26bc:	2d e4       	ldi	r18, 0x4D	; 77
    26be:	e2 2e       	mov	r14, r18
    26c0:	2c e0       	ldi	r18, 0x0C	; 12
    26c2:	f2 2e       	mov	r15, r18
    26c4:	0f ef       	ldi	r16, 0xFF	; 255
    26c6:	1f ef       	ldi	r17, 0xFF	; 255
    26c8:	98 01       	movw	r18, r16
    26ca:	4a e0       	ldi	r20, 0x0A	; 10
    26cc:	50 e0       	ldi	r21, 0x00	; 0
    26ce:	60 e0       	ldi	r22, 0x00	; 0
    26d0:	70 e0       	ldi	r23, 0x00	; 0
    26d2:	8f ef       	ldi	r24, 0xFF	; 255
    26d4:	95 e0       	ldi	r25, 0x05	; 5
    26d6:	0e 94 c7 10 	call	0x218e	; 0x218e <_ZN4TaskC1EmlPFvvEP9SchedulerbPFbvES1_>
    26da:	1f 92       	push	r1
    26dc:	1f 92       	push	r1
    26de:	35 ee       	ldi	r19, 0xE5	; 229
    26e0:	e3 2e       	mov	r14, r19
    26e2:	3b e0       	ldi	r19, 0x0B	; 11
    26e4:	f3 2e       	mov	r15, r19
    26e6:	0f ef       	ldi	r16, 0xFF	; 255
    26e8:	1f ef       	ldi	r17, 0xFF	; 255
    26ea:	98 01       	movw	r18, r16
    26ec:	48 ee       	ldi	r20, 0xE8	; 232
    26ee:	53 e0       	ldi	r21, 0x03	; 3
    26f0:	60 e0       	ldi	r22, 0x00	; 0
    26f2:	70 e0       	ldi	r23, 0x00	; 0
    26f4:	8e ed       	ldi	r24, 0xDE	; 222
    26f6:	95 e0       	ldi	r25, 0x05	; 5
    26f8:	0e 94 c7 10 	call	0x218e	; 0x218e <_ZN4TaskC1EmlPFvvEP9SchedulerbPFbvES1_>
    26fc:	1f 92       	push	r1
    26fe:	1f 92       	push	r1
    2700:	47 ec       	ldi	r20, 0xC7	; 199
    2702:	e4 2e       	mov	r14, r20
    2704:	43 e1       	ldi	r20, 0x13	; 19
    2706:	f4 2e       	mov	r15, r20
    2708:	0f ef       	ldi	r16, 0xFF	; 255
    270a:	1f ef       	ldi	r17, 0xFF	; 255
    270c:	98 01       	movw	r18, r16
    270e:	48 ee       	ldi	r20, 0xE8	; 232
    2710:	53 e0       	ldi	r21, 0x03	; 3
    2712:	60 e0       	ldi	r22, 0x00	; 0
    2714:	70 e0       	ldi	r23, 0x00	; 0
    2716:	8d eb       	ldi	r24, 0xBD	; 189
    2718:	95 e0       	ldi	r25, 0x05	; 5
    271a:	0e 94 c7 10 	call	0x218e	; 0x218e <_ZN4TaskC1EmlPFvvEP9SchedulerbPFbvES1_>
    271e:	1f 92       	push	r1
    2720:	1f 92       	push	r1
    2722:	58 e0       	ldi	r21, 0x08	; 8
    2724:	e5 2e       	mov	r14, r21
    2726:	53 e1       	ldi	r21, 0x13	; 19
    2728:	f5 2e       	mov	r15, r21
    272a:	0f ef       	ldi	r16, 0xFF	; 255
    272c:	1f ef       	ldi	r17, 0xFF	; 255
    272e:	98 01       	movw	r18, r16
    2730:	48 ee       	ldi	r20, 0xE8	; 232
    2732:	53 e0       	ldi	r21, 0x03	; 3
    2734:	60 e0       	ldi	r22, 0x00	; 0
    2736:	70 e0       	ldi	r23, 0x00	; 0
    2738:	8c e9       	ldi	r24, 0x9C	; 156
    273a:	95 e0       	ldi	r25, 0x05	; 5
    273c:	0e 94 c7 10 	call	0x218e	; 0x218e <_ZN4TaskC1EmlPFvvEP9SchedulerbPFbvES1_>
    2740:	1f 92       	push	r1
    2742:	1f 92       	push	r1
    2744:	66 e9       	ldi	r22, 0x96	; 150
    2746:	e6 2e       	mov	r14, r22
    2748:	6f e0       	ldi	r22, 0x0F	; 15
    274a:	f6 2e       	mov	r15, r22
    274c:	0f ef       	ldi	r16, 0xFF	; 255
    274e:	1f ef       	ldi	r17, 0xFF	; 255
    2750:	98 01       	movw	r18, r16
    2752:	48 ee       	ldi	r20, 0xE8	; 232
    2754:	53 e0       	ldi	r21, 0x03	; 3
    2756:	60 e0       	ldi	r22, 0x00	; 0
    2758:	70 e0       	ldi	r23, 0x00	; 0
    275a:	8b e7       	ldi	r24, 0x7B	; 123
    275c:	95 e0       	ldi	r25, 0x05	; 5
    275e:	0e 94 c7 10 	call	0x218e	; 0x218e <_ZN4TaskC1EmlPFvvEP9SchedulerbPFbvES1_>
    2762:	8d b7       	in	r24, 0x3d	; 61
    2764:	9e b7       	in	r25, 0x3e	; 62
    2766:	0e 96       	adiw	r24, 0x0e	; 14
    2768:	0f b6       	in	r0, 0x3f	; 63
    276a:	f8 94       	cli
    276c:	9e bf       	out	0x3e, r25	; 62
    276e:	0f be       	out	0x3f, r0	; 63
    2770:	8d bf       	out	0x3d, r24	; 61
    2772:	1f 91       	pop	r17
    2774:	0f 91       	pop	r16
    2776:	ff 90       	pop	r15
    2778:	ef 90       	pop	r14
    277a:	df 90       	pop	r13
    277c:	cf 90       	pop	r12
    277e:	af 90       	pop	r10
    2780:	9f 90       	pop	r9
    2782:	8f 90       	pop	r8
    2784:	08 95       	ret

00002786 <_GLOBAL__sub_D_myFont>:
    2786:	8b e6       	ldi	r24, 0x6B	; 107
    2788:	96 e0       	ldi	r25, 0x06	; 6
    278a:	0c 94 8f 15 	jmp	0x2b1e	; 0x2b1e <_ZN14SoftwareSerialD1Ev>

0000278e <_Z11TickFct_gpsv>:
    278e:	cf 93       	push	r28
    2790:	df 93       	push	r29
    2792:	cd b7       	in	r28, 0x3d	; 61
    2794:	de b7       	in	r29, 0x3e	; 62
    2796:	2a 97       	sbiw	r28, 0x0a	; 10
    2798:	0f b6       	in	r0, 0x3f	; 63
    279a:	f8 94       	cli
    279c:	de bf       	out	0x3e, r29	; 62
    279e:	0f be       	out	0x3f, r0	; 63
    27a0:	cd bf       	out	0x3d, r28	; 61
    27a2:	8b e6       	ldi	r24, 0x6B	; 107
    27a4:	96 e0       	ldi	r25, 0x06	; 6
    27a6:	0e 94 af 14 	call	0x295e	; 0x295e <_ZN14SoftwareSerial9availableEv>
    27aa:	18 16       	cp	r1, r24
    27ac:	19 06       	cpc	r1, r25
    27ae:	54 f4       	brge	.+20     	; 0x27c4 <_Z11TickFct_gpsv+0x36>
    27b0:	8b e6       	ldi	r24, 0x6B	; 107
    27b2:	96 e0       	ldi	r25, 0x06	; 6
    27b4:	0e 94 22 14 	call	0x2844	; 0x2844 <_ZN14SoftwareSerial4readEv>
    27b8:	68 2f       	mov	r22, r24
    27ba:	8a e8       	ldi	r24, 0x8A	; 138
    27bc:	96 e0       	ldi	r25, 0x06	; 6
    27be:	0e 94 68 05 	call	0xad0	; 0xad0 <_ZN11TinyGPSPlus6encodeEc>
    27c2:	ef cf       	rjmp	.-34     	; 0x27a2 <_Z11TickFct_gpsv+0x14>
    27c4:	6d e0       	ldi	r22, 0x0D	; 13
    27c6:	87 e0       	ldi	r24, 0x07	; 7
    27c8:	0e 94 9b 0b 	call	0x1736	; 0x1736 <_Z5setXYhh>
    27cc:	10 92 f3 06 	sts	0x06F3, r1
    27d0:	48 e0       	ldi	r20, 0x08	; 8
    27d2:	50 e0       	ldi	r21, 0x00	; 0
    27d4:	be 01       	movw	r22, r28
    27d6:	6f 5f       	subi	r22, 0xFF	; 255
    27d8:	7f 4f       	sbci	r23, 0xFF	; 255
    27da:	80 91 f8 06 	lds	r24, 0x06F8
    27de:	90 91 f9 06 	lds	r25, 0x06F9
    27e2:	0e 94 88 20 	call	0x4110	; 0x4110 <itoa>
    27e6:	0e 94 bd 0b 	call	0x177a	; 0x177a <_Z7sendStrPKc>
    27ea:	10 92 f3 06 	sts	0x06F3, r1
    27ee:	80 91 f8 06 	lds	r24, 0x06F8
    27f2:	90 91 f9 06 	lds	r25, 0x06F9
    27f6:	a0 91 fa 06 	lds	r26, 0x06FA
    27fa:	b0 91 fb 06 	lds	r27, 0x06FB
    27fe:	05 97       	sbiw	r24, 0x05	; 5
    2800:	a1 05       	cpc	r26, r1
    2802:	b1 05       	cpc	r27, r1
    2804:	b0 f0       	brcs	.+44     	; 0x2832 <_Z11TickFct_gpsv+0xa4>
    2806:	80 91 70 05 	lds	r24, 0x0570
    280a:	90 91 71 05 	lds	r25, 0x0571
    280e:	89 2b       	or	r24, r25
    2810:	29 f0       	breq	.+10     	; 0x281c <_Z11TickFct_gpsv+0x8e>
    2812:	10 92 71 05 	sts	0x0571, r1
    2816:	10 92 70 05 	sts	0x0570, r1
    281a:	06 c0       	rjmp	.+12     	; 0x2828 <_Z11TickFct_gpsv+0x9a>
    281c:	81 e0       	ldi	r24, 0x01	; 1
    281e:	90 e0       	ldi	r25, 0x00	; 0
    2820:	90 93 71 05 	sts	0x0571, r25
    2824:	80 93 70 05 	sts	0x0570, r24
    2828:	60 91 70 05 	lds	r22, 0x0570
    282c:	83 e0       	ldi	r24, 0x03	; 3
    282e:	0e 94 05 1d 	call	0x3a0a	; 0x3a0a <digitalWrite>
    2832:	2a 96       	adiw	r28, 0x0a	; 10
    2834:	0f b6       	in	r0, 0x3f	; 63
    2836:	f8 94       	cli
    2838:	de bf       	out	0x3e, r29	; 62
    283a:	0f be       	out	0x3f, r0	; 63
    283c:	cd bf       	out	0x3d, r28	; 61
    283e:	df 91       	pop	r29
    2840:	cf 91       	pop	r28
    2842:	08 95       	ret

00002844 <_ZN14SoftwareSerial4readEv>:
    2844:	20 91 ba 07 	lds	r18, 0x07BA
    2848:	30 91 bb 07 	lds	r19, 0x07BB
    284c:	28 17       	cp	r18, r24
    284e:	39 07       	cpc	r19, r25
    2850:	b9 f4       	brne	.+46     	; 0x2880 <_ZN14SoftwareSerial4readEv+0x3c>
    2852:	90 91 78 07 	lds	r25, 0x0778
    2856:	80 91 79 07 	lds	r24, 0x0779
    285a:	98 17       	cp	r25, r24
    285c:	89 f0       	breq	.+34     	; 0x2880 <_ZN14SoftwareSerial4readEv+0x3c>
    285e:	e0 91 78 07 	lds	r30, 0x0778
    2862:	f0 e0       	ldi	r31, 0x00	; 0
    2864:	e6 58       	subi	r30, 0x86	; 134
    2866:	f8 4f       	sbci	r31, 0xF8	; 248
    2868:	80 81       	ld	r24, Z
    286a:	20 91 78 07 	lds	r18, 0x0778
    286e:	30 e0       	ldi	r19, 0x00	; 0
    2870:	2f 5f       	subi	r18, 0xFF	; 255
    2872:	3f 4f       	sbci	r19, 0xFF	; 255
    2874:	2f 73       	andi	r18, 0x3F	; 63
    2876:	33 27       	eor	r19, r19
    2878:	20 93 78 07 	sts	0x0778, r18
    287c:	90 e0       	ldi	r25, 0x00	; 0
    287e:	08 95       	ret
    2880:	8f ef       	ldi	r24, 0xFF	; 255
    2882:	9f ef       	ldi	r25, 0xFF	; 255
    2884:	08 95       	ret

00002886 <_ZN14SoftwareSerial5writeEh>:
    2886:	1f 93       	push	r17
    2888:	cf 93       	push	r28
    288a:	df 93       	push	r29
    288c:	dc 01       	movw	r26, r24
    288e:	5c 96       	adiw	r26, 0x1c	; 28
    2890:	2d 91       	ld	r18, X+
    2892:	3c 91       	ld	r19, X
    2894:	5d 97       	sbiw	r26, 0x1d	; 29
    2896:	21 15       	cp	r18, r1
    2898:	31 05       	cpc	r19, r1
    289a:	39 f4       	brne	.+14     	; 0x28aa <_ZN14SoftwareSerial5writeEh+0x24>
    289c:	81 e0       	ldi	r24, 0x01	; 1
    289e:	90 e0       	ldi	r25, 0x00	; 0
    28a0:	13 96       	adiw	r26, 0x03	; 3
    28a2:	9c 93       	st	X, r25
    28a4:	8e 93       	st	-X, r24
    28a6:	12 97       	sbiw	r26, 0x02	; 2
    28a8:	3d c0       	rjmp	.+122    	; 0x2924 <_ZN14SoftwareSerial5writeEh+0x9e>
    28aa:	51 96       	adiw	r26, 0x11	; 17
    28ac:	ed 91       	ld	r30, X+
    28ae:	fc 91       	ld	r31, X
    28b0:	52 97       	sbiw	r26, 0x12	; 18
    28b2:	50 96       	adiw	r26, 0x10	; 16
    28b4:	9c 91       	ld	r25, X
    28b6:	50 97       	sbiw	r26, 0x10	; 16
    28b8:	89 2f       	mov	r24, r25
    28ba:	80 95       	com	r24
    28bc:	1f b7       	in	r17, 0x3f	; 63
    28be:	5e 96       	adiw	r26, 0x1e	; 30
    28c0:	4c 91       	ld	r20, X
    28c2:	5e 97       	sbiw	r26, 0x1e	; 30
    28c4:	41 fb       	bst	r20, 1
    28c6:	77 27       	eor	r23, r23
    28c8:	70 f9       	bld	r23, 0
    28ca:	41 fd       	sbrc	r20, 1
    28cc:	60 95       	com	r22
    28ce:	f8 94       	cli
    28d0:	40 81       	ld	r20, Z
    28d2:	77 23       	and	r23, r23
    28d4:	11 f0       	breq	.+4      	; 0x28da <_ZN14SoftwareSerial5writeEh+0x54>
    28d6:	49 2b       	or	r20, r25
    28d8:	01 c0       	rjmp	.+2      	; 0x28dc <_ZN14SoftwareSerial5writeEh+0x56>
    28da:	48 23       	and	r20, r24
    28dc:	40 83       	st	Z, r20
    28de:	e9 01       	movw	r28, r18
    28e0:	21 97       	sbiw	r28, 0x01	; 1
    28e2:	f1 f7       	brne	.-4      	; 0x28e0 <_ZN14SoftwareSerial5writeEh+0x5a>
    28e4:	48 e0       	ldi	r20, 0x08	; 8
    28e6:	50 81       	ld	r21, Z
    28e8:	60 ff       	sbrs	r22, 0
    28ea:	02 c0       	rjmp	.+4      	; 0x28f0 <_ZN14SoftwareSerial5writeEh+0x6a>
    28ec:	59 2b       	or	r21, r25
    28ee:	01 c0       	rjmp	.+2      	; 0x28f2 <_ZN14SoftwareSerial5writeEh+0x6c>
    28f0:	58 23       	and	r21, r24
    28f2:	50 83       	st	Z, r21
    28f4:	e9 01       	movw	r28, r18
    28f6:	21 97       	sbiw	r28, 0x01	; 1
    28f8:	f1 f7       	brne	.-4      	; 0x28f6 <_ZN14SoftwareSerial5writeEh+0x70>
    28fa:	66 95       	lsr	r22
    28fc:	41 50       	subi	r20, 0x01	; 1
    28fe:	99 f7       	brne	.-26     	; 0x28e6 <_ZN14SoftwareSerial5writeEh+0x60>
    2900:	77 23       	and	r23, r23
    2902:	21 f0       	breq	.+8      	; 0x290c <_ZN14SoftwareSerial5writeEh+0x86>
    2904:	90 81       	ld	r25, Z
    2906:	89 23       	and	r24, r25
    2908:	80 83       	st	Z, r24
    290a:	03 c0       	rjmp	.+6      	; 0x2912 <_ZN14SoftwareSerial5writeEh+0x8c>
    290c:	80 81       	ld	r24, Z
    290e:	98 2b       	or	r25, r24
    2910:	90 83       	st	Z, r25
    2912:	1f bf       	out	0x3f, r17	; 63
    2914:	5c 96       	adiw	r26, 0x1c	; 28
    2916:	8d 91       	ld	r24, X+
    2918:	9c 91       	ld	r25, X
    291a:	5d 97       	sbiw	r26, 0x1d	; 29
    291c:	01 97       	sbiw	r24, 0x01	; 1
    291e:	f1 f7       	brne	.-4      	; 0x291c <_ZN14SoftwareSerial5writeEh+0x96>
    2920:	21 e0       	ldi	r18, 0x01	; 1
    2922:	30 e0       	ldi	r19, 0x00	; 0
    2924:	c9 01       	movw	r24, r18
    2926:	df 91       	pop	r29
    2928:	cf 91       	pop	r28
    292a:	1f 91       	pop	r17
    292c:	08 95       	ret

0000292e <_ZN14SoftwareSerial4peekEv>:
    292e:	20 91 ba 07 	lds	r18, 0x07BA
    2932:	30 91 bb 07 	lds	r19, 0x07BB
    2936:	28 17       	cp	r18, r24
    2938:	39 07       	cpc	r19, r25
    293a:	71 f4       	brne	.+28     	; 0x2958 <_ZN14SoftwareSerial4peekEv+0x2a>
    293c:	90 91 78 07 	lds	r25, 0x0778
    2940:	80 91 79 07 	lds	r24, 0x0779
    2944:	98 17       	cp	r25, r24
    2946:	41 f0       	breq	.+16     	; 0x2958 <_ZN14SoftwareSerial4peekEv+0x2a>
    2948:	e0 91 78 07 	lds	r30, 0x0778
    294c:	f0 e0       	ldi	r31, 0x00	; 0
    294e:	e6 58       	subi	r30, 0x86	; 134
    2950:	f8 4f       	sbci	r31, 0xF8	; 248
    2952:	80 81       	ld	r24, Z
    2954:	90 e0       	ldi	r25, 0x00	; 0
    2956:	08 95       	ret
    2958:	8f ef       	ldi	r24, 0xFF	; 255
    295a:	9f ef       	ldi	r25, 0xFF	; 255
    295c:	08 95       	ret

0000295e <_ZN14SoftwareSerial9availableEv>:
    295e:	20 91 ba 07 	lds	r18, 0x07BA
    2962:	30 91 bb 07 	lds	r19, 0x07BB
    2966:	28 17       	cp	r18, r24
    2968:	39 07       	cpc	r19, r25
    296a:	71 f4       	brne	.+28     	; 0x2988 <_ZN14SoftwareSerial9availableEv+0x2a>
    296c:	80 91 79 07 	lds	r24, 0x0779
    2970:	20 91 78 07 	lds	r18, 0x0778
    2974:	90 e0       	ldi	r25, 0x00	; 0
    2976:	80 5c       	subi	r24, 0xC0	; 192
    2978:	9f 4f       	sbci	r25, 0xFF	; 255
    297a:	82 1b       	sub	r24, r18
    297c:	91 09       	sbc	r25, r1
    297e:	60 e4       	ldi	r22, 0x40	; 64
    2980:	70 e0       	ldi	r23, 0x00	; 0
    2982:	0e 94 b1 1f 	call	0x3f62	; 0x3f62 <__divmodhi4>
    2986:	08 95       	ret
    2988:	80 e0       	ldi	r24, 0x00	; 0
    298a:	90 e0       	ldi	r25, 0x00	; 0
    298c:	08 95       	ret

0000298e <_ZN14SoftwareSerial5flushEv>:
    298e:	20 91 ba 07 	lds	r18, 0x07BA
    2992:	30 91 bb 07 	lds	r19, 0x07BB
    2996:	28 17       	cp	r18, r24
    2998:	39 07       	cpc	r19, r25
    299a:	39 f4       	brne	.+14     	; 0x29aa <_ZN14SoftwareSerial5flushEv+0x1c>
    299c:	8f b7       	in	r24, 0x3f	; 63
    299e:	f8 94       	cli
    29a0:	10 92 79 07 	sts	0x0779, r1
    29a4:	10 92 78 07 	sts	0x0778, r1
    29a8:	8f bf       	out	0x3f, r24	; 63
    29aa:	08 95       	ret

000029ac <_ZN14SoftwareSerial13stopListeningEv>:
    29ac:	e0 91 ba 07 	lds	r30, 0x07BA
    29b0:	f0 91 bb 07 	lds	r31, 0x07BB
    29b4:	e8 17       	cp	r30, r24
    29b6:	f9 07       	cpc	r31, r25
    29b8:	69 f4       	brne	.+26     	; 0x29d4 <_ZN14SoftwareSerial13stopListeningEv+0x28>
    29ba:	a3 89       	ldd	r26, Z+19	; 0x13
    29bc:	b4 89       	ldd	r27, Z+20	; 0x14
    29be:	9c 91       	ld	r25, X
    29c0:	85 89       	ldd	r24, Z+21	; 0x15
    29c2:	80 95       	com	r24
    29c4:	89 23       	and	r24, r25
    29c6:	8c 93       	st	X, r24
    29c8:	10 92 bb 07 	sts	0x07BB, r1
    29cc:	10 92 ba 07 	sts	0x07BA, r1
    29d0:	81 e0       	ldi	r24, 0x01	; 1
    29d2:	08 95       	ret
    29d4:	80 e0       	ldi	r24, 0x00	; 0
    29d6:	08 95       	ret

000029d8 <_ZN14SoftwareSerial6listenEv>:
    29d8:	cf 93       	push	r28
    29da:	df 93       	push	r29
    29dc:	ec 01       	movw	r28, r24
    29de:	8a 8d       	ldd	r24, Y+26	; 0x1a
    29e0:	9b 8d       	ldd	r25, Y+27	; 0x1b
    29e2:	89 2b       	or	r24, r25
    29e4:	f1 f0       	breq	.+60     	; 0x2a22 <_ZN14SoftwareSerial6listenEv+0x4a>
    29e6:	80 91 ba 07 	lds	r24, 0x07BA
    29ea:	90 91 bb 07 	lds	r25, 0x07BB
    29ee:	8c 17       	cp	r24, r28
    29f0:	9d 07       	cpc	r25, r29
    29f2:	b9 f0       	breq	.+46     	; 0x2a22 <_ZN14SoftwareSerial6listenEv+0x4a>
    29f4:	00 97       	sbiw	r24, 0x00	; 0
    29f6:	11 f0       	breq	.+4      	; 0x29fc <_ZN14SoftwareSerial6listenEv+0x24>
    29f8:	0e 94 d6 14 	call	0x29ac	; 0x29ac <_ZN14SoftwareSerial13stopListeningEv>
    29fc:	8e 8d       	ldd	r24, Y+30	; 0x1e
    29fe:	8e 7f       	andi	r24, 0xFE	; 254
    2a00:	8e 8f       	std	Y+30, r24	; 0x1e
    2a02:	10 92 79 07 	sts	0x0779, r1
    2a06:	10 92 78 07 	sts	0x0778, r1
    2a0a:	d0 93 bb 07 	sts	0x07BB, r29
    2a0e:	c0 93 ba 07 	sts	0x07BA, r28
    2a12:	eb 89       	ldd	r30, Y+19	; 0x13
    2a14:	fc 89       	ldd	r31, Y+20	; 0x14
    2a16:	90 81       	ld	r25, Z
    2a18:	8d 89       	ldd	r24, Y+21	; 0x15
    2a1a:	89 2b       	or	r24, r25
    2a1c:	80 83       	st	Z, r24
    2a1e:	81 e0       	ldi	r24, 0x01	; 1
    2a20:	01 c0       	rjmp	.+2      	; 0x2a24 <_ZN14SoftwareSerial6listenEv+0x4c>
    2a22:	80 e0       	ldi	r24, 0x00	; 0
    2a24:	df 91       	pop	r29
    2a26:	cf 91       	pop	r28
    2a28:	08 95       	ret

00002a2a <__vector_3>:
    2a2a:	1f 92       	push	r1
    2a2c:	0f 92       	push	r0
    2a2e:	0f b6       	in	r0, 0x3f	; 63
    2a30:	0f 92       	push	r0
    2a32:	11 24       	eor	r1, r1
    2a34:	2f 93       	push	r18
    2a36:	3f 93       	push	r19
    2a38:	4f 93       	push	r20
    2a3a:	5f 93       	push	r21
    2a3c:	6f 93       	push	r22
    2a3e:	7f 93       	push	r23
    2a40:	8f 93       	push	r24
    2a42:	9f 93       	push	r25
    2a44:	af 93       	push	r26
    2a46:	bf 93       	push	r27
    2a48:	ef 93       	push	r30
    2a4a:	ff 93       	push	r31
    2a4c:	e0 91 ba 07 	lds	r30, 0x07BA
    2a50:	f0 91 bb 07 	lds	r31, 0x07BB
    2a54:	30 97       	sbiw	r30, 0x00	; 0
    2a56:	09 f4       	brne	.+2      	; 0x2a5a <__vector_3+0x30>
    2a58:	51 c0       	rjmp	.+162    	; 0x2afc <__vector_3+0xd2>
    2a5a:	96 8d       	ldd	r25, Z+30	; 0x1e
    2a5c:	a6 85       	ldd	r26, Z+14	; 0x0e
    2a5e:	b7 85       	ldd	r27, Z+15	; 0x0f
    2a60:	85 85       	ldd	r24, Z+13	; 0x0d
    2a62:	91 ff       	sbrs	r25, 1
    2a64:	04 c0       	rjmp	.+8      	; 0x2a6e <__vector_3+0x44>
    2a66:	9c 91       	ld	r25, X
    2a68:	89 23       	and	r24, r25
    2a6a:	29 f4       	brne	.+10     	; 0x2a76 <__vector_3+0x4c>
    2a6c:	47 c0       	rjmp	.+142    	; 0x2afc <__vector_3+0xd2>
    2a6e:	9c 91       	ld	r25, X
    2a70:	89 23       	and	r24, r25
    2a72:	09 f0       	breq	.+2      	; 0x2a76 <__vector_3+0x4c>
    2a74:	43 c0       	rjmp	.+134    	; 0x2afc <__vector_3+0xd2>
    2a76:	a3 89       	ldd	r26, Z+19	; 0x13
    2a78:	b4 89       	ldd	r27, Z+20	; 0x14
    2a7a:	9c 91       	ld	r25, X
    2a7c:	85 89       	ldd	r24, Z+21	; 0x15
    2a7e:	80 95       	com	r24
    2a80:	89 23       	and	r24, r25
    2a82:	8c 93       	st	X, r24
    2a84:	86 89       	ldd	r24, Z+22	; 0x16
    2a86:	97 89       	ldd	r25, Z+23	; 0x17
    2a88:	01 97       	sbiw	r24, 0x01	; 1
    2a8a:	f1 f7       	brne	.-4      	; 0x2a88 <__vector_3+0x5e>
    2a8c:	60 8d       	ldd	r22, Z+24	; 0x18
    2a8e:	71 8d       	ldd	r23, Z+25	; 0x19
    2a90:	a6 85       	ldd	r26, Z+14	; 0x0e
    2a92:	b7 85       	ldd	r27, Z+15	; 0x0f
    2a94:	55 85       	ldd	r21, Z+13	; 0x0d
    2a96:	38 e0       	ldi	r19, 0x08	; 8
    2a98:	20 e0       	ldi	r18, 0x00	; 0
    2a9a:	cb 01       	movw	r24, r22
    2a9c:	01 97       	sbiw	r24, 0x01	; 1
    2a9e:	f1 f7       	brne	.-4      	; 0x2a9c <__vector_3+0x72>
    2aa0:	82 2f       	mov	r24, r18
    2aa2:	90 e0       	ldi	r25, 0x00	; 0
    2aa4:	95 95       	asr	r25
    2aa6:	87 95       	ror	r24
    2aa8:	28 2f       	mov	r18, r24
    2aaa:	4c 91       	ld	r20, X
    2aac:	45 23       	and	r20, r21
    2aae:	09 f0       	breq	.+2      	; 0x2ab2 <__vector_3+0x88>
    2ab0:	20 68       	ori	r18, 0x80	; 128
    2ab2:	31 50       	subi	r19, 0x01	; 1
    2ab4:	91 f7       	brne	.-28     	; 0x2a9a <__vector_3+0x70>
    2ab6:	86 8d       	ldd	r24, Z+30	; 0x1e
    2ab8:	81 fd       	sbrc	r24, 1
    2aba:	20 95       	com	r18
    2abc:	80 91 79 07 	lds	r24, 0x0779
    2ac0:	90 e0       	ldi	r25, 0x00	; 0
    2ac2:	01 96       	adiw	r24, 0x01	; 1
    2ac4:	8f 73       	andi	r24, 0x3F	; 63
    2ac6:	99 27       	eor	r25, r25
    2ac8:	30 91 78 07 	lds	r19, 0x0778
    2acc:	38 17       	cp	r19, r24
    2ace:	49 f0       	breq	.+18     	; 0x2ae2 <__vector_3+0xb8>
    2ad0:	a0 91 79 07 	lds	r26, 0x0779
    2ad4:	b0 e0       	ldi	r27, 0x00	; 0
    2ad6:	a6 58       	subi	r26, 0x86	; 134
    2ad8:	b8 4f       	sbci	r27, 0xF8	; 248
    2ada:	2c 93       	st	X, r18
    2adc:	80 93 79 07 	sts	0x0779, r24
    2ae0:	03 c0       	rjmp	.+6      	; 0x2ae8 <__vector_3+0xbe>
    2ae2:	86 8d       	ldd	r24, Z+30	; 0x1e
    2ae4:	81 60       	ori	r24, 0x01	; 1
    2ae6:	86 8f       	std	Z+30, r24	; 0x1e
    2ae8:	82 8d       	ldd	r24, Z+26	; 0x1a
    2aea:	93 8d       	ldd	r25, Z+27	; 0x1b
    2aec:	01 97       	sbiw	r24, 0x01	; 1
    2aee:	f1 f7       	brne	.-4      	; 0x2aec <__vector_3+0xc2>
    2af0:	a3 89       	ldd	r26, Z+19	; 0x13
    2af2:	b4 89       	ldd	r27, Z+20	; 0x14
    2af4:	9c 91       	ld	r25, X
    2af6:	85 89       	ldd	r24, Z+21	; 0x15
    2af8:	89 2b       	or	r24, r25
    2afa:	8c 93       	st	X, r24
    2afc:	ff 91       	pop	r31
    2afe:	ef 91       	pop	r30
    2b00:	bf 91       	pop	r27
    2b02:	af 91       	pop	r26
    2b04:	9f 91       	pop	r25
    2b06:	8f 91       	pop	r24
    2b08:	7f 91       	pop	r23
    2b0a:	6f 91       	pop	r22
    2b0c:	5f 91       	pop	r21
    2b0e:	4f 91       	pop	r20
    2b10:	3f 91       	pop	r19
    2b12:	2f 91       	pop	r18
    2b14:	0f 90       	pop	r0
    2b16:	0f be       	out	0x3f, r0	; 63
    2b18:	0f 90       	pop	r0
    2b1a:	1f 90       	pop	r1
    2b1c:	18 95       	reti

00002b1e <_ZN14SoftwareSerialD1Ev>:
    2b1e:	28 e4       	ldi	r18, 0x48	; 72
    2b20:	35 e0       	ldi	r19, 0x05	; 5
    2b22:	fc 01       	movw	r30, r24
    2b24:	31 83       	std	Z+1, r19	; 0x01
    2b26:	20 83       	st	Z, r18
    2b28:	0c 94 d6 14 	jmp	0x29ac	; 0x29ac <_ZN14SoftwareSerial13stopListeningEv>

00002b2c <_ZN14SoftwareSerial5setTXEh>:
    2b2c:	1f 93       	push	r17
    2b2e:	cf 93       	push	r28
    2b30:	df 93       	push	r29
    2b32:	ec 01       	movw	r28, r24
    2b34:	16 2f       	mov	r17, r22
    2b36:	6e 8d       	ldd	r22, Y+30	; 0x1e
    2b38:	66 95       	lsr	r22
    2b3a:	61 70       	andi	r22, 0x01	; 1
    2b3c:	81 e0       	ldi	r24, 0x01	; 1
    2b3e:	68 27       	eor	r22, r24
    2b40:	81 2f       	mov	r24, r17
    2b42:	0e 94 05 1d 	call	0x3a0a	; 0x3a0a <digitalWrite>
    2b46:	61 e0       	ldi	r22, 0x01	; 1
    2b48:	81 2f       	mov	r24, r17
    2b4a:	0e 94 c9 1c 	call	0x3992	; 0x3992 <pinMode>
    2b4e:	61 2f       	mov	r22, r17
    2b50:	70 e0       	ldi	r23, 0x00	; 0
    2b52:	fb 01       	movw	r30, r22
    2b54:	e2 53       	subi	r30, 0x32	; 50
    2b56:	fe 4f       	sbci	r31, 0xFE	; 254
    2b58:	e4 91       	lpm	r30, Z
    2b5a:	e8 8b       	std	Y+16, r30	; 0x10
    2b5c:	fb 01       	movw	r30, r22
    2b5e:	ee 51       	subi	r30, 0x1E	; 30
    2b60:	fe 4f       	sbci	r31, 0xFE	; 254
    2b62:	e4 91       	lpm	r30, Z
    2b64:	f0 e0       	ldi	r31, 0x00	; 0
    2b66:	ee 0f       	add	r30, r30
    2b68:	ff 1f       	adc	r31, r31
    2b6a:	e0 50       	subi	r30, 0x00	; 0
    2b6c:	fe 4f       	sbci	r31, 0xFE	; 254
    2b6e:	85 91       	lpm	r24, Z+
    2b70:	94 91       	lpm	r25, Z
    2b72:	9a 8b       	std	Y+18, r25	; 0x12
    2b74:	89 8b       	std	Y+17, r24	; 0x11
    2b76:	df 91       	pop	r29
    2b78:	cf 91       	pop	r28
    2b7a:	1f 91       	pop	r17
    2b7c:	08 95       	ret

00002b7e <_ZN14SoftwareSerial5setRXEh>:
    2b7e:	1f 93       	push	r17
    2b80:	cf 93       	push	r28
    2b82:	df 93       	push	r29
    2b84:	ec 01       	movw	r28, r24
    2b86:	16 2f       	mov	r17, r22
    2b88:	60 e0       	ldi	r22, 0x00	; 0
    2b8a:	81 2f       	mov	r24, r17
    2b8c:	0e 94 c9 1c 	call	0x3992	; 0x3992 <pinMode>
    2b90:	8e 8d       	ldd	r24, Y+30	; 0x1e
    2b92:	81 fd       	sbrc	r24, 1
    2b94:	04 c0       	rjmp	.+8      	; 0x2b9e <_ZN14SoftwareSerial5setRXEh+0x20>
    2b96:	61 e0       	ldi	r22, 0x01	; 1
    2b98:	81 2f       	mov	r24, r17
    2b9a:	0e 94 05 1d 	call	0x3a0a	; 0x3a0a <digitalWrite>
    2b9e:	1c 87       	std	Y+12, r17	; 0x0c
    2ba0:	61 2f       	mov	r22, r17
    2ba2:	70 e0       	ldi	r23, 0x00	; 0
    2ba4:	fb 01       	movw	r30, r22
    2ba6:	e2 53       	subi	r30, 0x32	; 50
    2ba8:	fe 4f       	sbci	r31, 0xFE	; 254
    2baa:	e4 91       	lpm	r30, Z
    2bac:	ed 87       	std	Y+13, r30	; 0x0d
    2bae:	fb 01       	movw	r30, r22
    2bb0:	ee 51       	subi	r30, 0x1E	; 30
    2bb2:	fe 4f       	sbci	r31, 0xFE	; 254
    2bb4:	e4 91       	lpm	r30, Z
    2bb6:	f0 e0       	ldi	r31, 0x00	; 0
    2bb8:	ee 0f       	add	r30, r30
    2bba:	ff 1f       	adc	r31, r31
    2bbc:	ea 50       	subi	r30, 0x0A	; 10
    2bbe:	fe 4f       	sbci	r31, 0xFE	; 254
    2bc0:	85 91       	lpm	r24, Z+
    2bc2:	94 91       	lpm	r25, Z
    2bc4:	9f 87       	std	Y+15, r25	; 0x0f
    2bc6:	8e 87       	std	Y+14, r24	; 0x0e
    2bc8:	df 91       	pop	r29
    2bca:	cf 91       	pop	r28
    2bcc:	1f 91       	pop	r17
    2bce:	08 95       	ret

00002bd0 <_ZN14SoftwareSerialC1Ehhb>:
    2bd0:	1f 93       	push	r17
    2bd2:	cf 93       	push	r28
    2bd4:	df 93       	push	r29
    2bd6:	ec 01       	movw	r28, r24
    2bd8:	16 2f       	mov	r17, r22
    2bda:	1b 82       	std	Y+3, r1	; 0x03
    2bdc:	1a 82       	std	Y+2, r1	; 0x02
    2bde:	88 ee       	ldi	r24, 0xE8	; 232
    2be0:	93 e0       	ldi	r25, 0x03	; 3
    2be2:	a0 e0       	ldi	r26, 0x00	; 0
    2be4:	b0 e0       	ldi	r27, 0x00	; 0
    2be6:	8c 83       	std	Y+4, r24	; 0x04
    2be8:	9d 83       	std	Y+5, r25	; 0x05
    2bea:	ae 83       	std	Y+6, r26	; 0x06
    2bec:	bf 83       	std	Y+7, r27	; 0x07
    2bee:	88 e4       	ldi	r24, 0x48	; 72
    2bf0:	95 e0       	ldi	r25, 0x05	; 5
    2bf2:	99 83       	std	Y+1, r25	; 0x01
    2bf4:	88 83       	st	Y, r24
    2bf6:	1f 8a       	std	Y+23, r1	; 0x17
    2bf8:	1e 8a       	std	Y+22, r1	; 0x16
    2bfa:	19 8e       	std	Y+25, r1	; 0x19
    2bfc:	18 8e       	std	Y+24, r1	; 0x18
    2bfe:	1b 8e       	std	Y+27, r1	; 0x1b
    2c00:	1a 8e       	std	Y+26, r1	; 0x1a
    2c02:	1d 8e       	std	Y+29, r1	; 0x1d
    2c04:	1c 8e       	std	Y+28, r1	; 0x1c
    2c06:	8e 8d       	ldd	r24, Y+30	; 0x1e
    2c08:	8e 7f       	andi	r24, 0xFE	; 254
    2c0a:	20 fb       	bst	r18, 0
    2c0c:	81 f9       	bld	r24, 1
    2c0e:	8e 8f       	std	Y+30, r24	; 0x1e
    2c10:	64 2f       	mov	r22, r20
    2c12:	ce 01       	movw	r24, r28
    2c14:	0e 94 96 15 	call	0x2b2c	; 0x2b2c <_ZN14SoftwareSerial5setTXEh>
    2c18:	61 2f       	mov	r22, r17
    2c1a:	ce 01       	movw	r24, r28
    2c1c:	df 91       	pop	r29
    2c1e:	cf 91       	pop	r28
    2c20:	1f 91       	pop	r17
    2c22:	0c 94 bf 15 	jmp	0x2b7e	; 0x2b7e <_ZN14SoftwareSerial5setRXEh>

00002c26 <_ZN14SoftwareSerial5beginEl>:
    2c26:	cf 93       	push	r28
    2c28:	df 93       	push	r29
    2c2a:	ec 01       	movw	r28, r24
    2c2c:	9a 01       	movw	r18, r20
    2c2e:	ab 01       	movw	r20, r22
    2c30:	1b 8e       	std	Y+27, r1	; 0x1b
    2c32:	1a 8e       	std	Y+26, r1	; 0x1a
    2c34:	19 8e       	std	Y+25, r1	; 0x19
    2c36:	18 8e       	std	Y+24, r1	; 0x18
    2c38:	1f 8a       	std	Y+23, r1	; 0x17
    2c3a:	1e 8a       	std	Y+22, r1	; 0x16
    2c3c:	60 e8       	ldi	r22, 0x80	; 128
    2c3e:	74 e8       	ldi	r23, 0x84	; 132
    2c40:	8e e1       	ldi	r24, 0x1E	; 30
    2c42:	90 e0       	ldi	r25, 0x00	; 0
    2c44:	0e 94 e7 1f 	call	0x3fce	; 0x3fce <__divmodsi4>
    2c48:	f9 01       	movw	r30, r18
    2c4a:	24 30       	cpi	r18, 0x04	; 4
    2c4c:	31 05       	cpc	r19, r1
    2c4e:	18 f0       	brcs	.+6      	; 0x2c56 <_ZN14SoftwareSerial5beginEl+0x30>
    2c50:	c9 01       	movw	r24, r18
    2c52:	03 97       	sbiw	r24, 0x03	; 3
    2c54:	02 c0       	rjmp	.+4      	; 0x2c5a <_ZN14SoftwareSerial5beginEl+0x34>
    2c56:	81 e0       	ldi	r24, 0x01	; 1
    2c58:	90 e0       	ldi	r25, 0x00	; 0
    2c5a:	9d 8f       	std	Y+29, r25	; 0x1d
    2c5c:	8c 8f       	std	Y+28, r24	; 0x1c
    2c5e:	6c 85       	ldd	r22, Y+12	; 0x0c
    2c60:	66 31       	cpi	r22, 0x16	; 22
    2c62:	08 f0       	brcs	.+2      	; 0x2c66 <_ZN14SoftwareSerial5beginEl+0x40>
    2c64:	69 c0       	rjmp	.+210    	; 0x2d38 <_ZN14SoftwareSerial5beginEl+0x112>
    2c66:	c9 01       	movw	r24, r18
    2c68:	96 95       	lsr	r25
    2c6a:	87 95       	ror	r24
    2c6c:	84 31       	cpi	r24, 0x14	; 20
    2c6e:	91 05       	cpc	r25, r1
    2c70:	10 f0       	brcs	.+4      	; 0x2c76 <_ZN14SoftwareSerial5beginEl+0x50>
    2c72:	43 97       	sbiw	r24, 0x13	; 19
    2c74:	02 c0       	rjmp	.+4      	; 0x2c7a <_ZN14SoftwareSerial5beginEl+0x54>
    2c76:	81 e0       	ldi	r24, 0x01	; 1
    2c78:	90 e0       	ldi	r25, 0x00	; 0
    2c7a:	9f 8b       	std	Y+23, r25	; 0x17
    2c7c:	8e 8b       	std	Y+22, r24	; 0x16
    2c7e:	36 97       	sbiw	r30, 0x06	; 6
    2c80:	18 f0       	brcs	.+6      	; 0x2c88 <_ZN14SoftwareSerial5beginEl+0x62>
    2c82:	c9 01       	movw	r24, r18
    2c84:	05 97       	sbiw	r24, 0x05	; 5
    2c86:	02 c0       	rjmp	.+4      	; 0x2c8c <_ZN14SoftwareSerial5beginEl+0x66>
    2c88:	81 e0       	ldi	r24, 0x01	; 1
    2c8a:	90 e0       	ldi	r25, 0x00	; 0
    2c8c:	99 8f       	std	Y+25, r25	; 0x19
    2c8e:	88 8f       	std	Y+24, r24	; 0x18
    2c90:	c9 01       	movw	r24, r18
    2c92:	88 0f       	add	r24, r24
    2c94:	99 1f       	adc	r25, r25
    2c96:	28 0f       	add	r18, r24
    2c98:	39 1f       	adc	r19, r25
    2c9a:	36 95       	lsr	r19
    2c9c:	27 95       	ror	r18
    2c9e:	36 95       	lsr	r19
    2ca0:	27 95       	ror	r18
    2ca2:	2d 30       	cpi	r18, 0x0D	; 13
    2ca4:	31 05       	cpc	r19, r1
    2ca6:	18 f0       	brcs	.+6      	; 0x2cae <_ZN14SoftwareSerial5beginEl+0x88>
    2ca8:	2c 50       	subi	r18, 0x0C	; 12
    2caa:	31 09       	sbc	r19, r1
    2cac:	02 c0       	rjmp	.+4      	; 0x2cb2 <_ZN14SoftwareSerial5beginEl+0x8c>
    2cae:	21 e0       	ldi	r18, 0x01	; 1
    2cb0:	30 e0       	ldi	r19, 0x00	; 0
    2cb2:	3b 8f       	std	Y+27, r19	; 0x1b
    2cb4:	2a 8f       	std	Y+26, r18	; 0x1a
    2cb6:	90 91 68 00 	lds	r25, 0x0068
    2cba:	68 30       	cpi	r22, 0x08	; 8
    2cbc:	50 f0       	brcs	.+20     	; 0x2cd2 <_ZN14SoftwareSerial5beginEl+0xac>
    2cbe:	21 e0       	ldi	r18, 0x01	; 1
    2cc0:	6e 30       	cpi	r22, 0x0E	; 14
    2cc2:	08 f4       	brcc	.+2      	; 0x2cc6 <_ZN14SoftwareSerial5beginEl+0xa0>
    2cc4:	20 e0       	ldi	r18, 0x00	; 0
    2cc6:	81 e0       	ldi	r24, 0x01	; 1
    2cc8:	01 c0       	rjmp	.+2      	; 0x2ccc <_ZN14SoftwareSerial5beginEl+0xa6>
    2cca:	88 0f       	add	r24, r24
    2ccc:	2a 95       	dec	r18
    2cce:	ea f7       	brpl	.-6      	; 0x2cca <_ZN14SoftwareSerial5beginEl+0xa4>
    2cd0:	01 c0       	rjmp	.+2      	; 0x2cd4 <_ZN14SoftwareSerial5beginEl+0xae>
    2cd2:	84 e0       	ldi	r24, 0x04	; 4
    2cd4:	89 2b       	or	r24, r25
    2cd6:	80 93 68 00 	sts	0x0068, r24
    2cda:	8c 85       	ldd	r24, Y+12	; 0x0c
    2cdc:	88 30       	cpi	r24, 0x08	; 8
    2cde:	38 f0       	brcs	.+14     	; 0x2cee <_ZN14SoftwareSerial5beginEl+0xc8>
    2ce0:	8e 30       	cpi	r24, 0x0E	; 14
    2ce2:	40 f0       	brcs	.+16     	; 0x2cf4 <_ZN14SoftwareSerial5beginEl+0xce>
    2ce4:	86 31       	cpi	r24, 0x16	; 22
    2ce6:	48 f0       	brcs	.+18     	; 0x2cfa <_ZN14SoftwareSerial5beginEl+0xd4>
    2ce8:	20 e0       	ldi	r18, 0x00	; 0
    2cea:	30 e0       	ldi	r19, 0x00	; 0
    2cec:	08 c0       	rjmp	.+16     	; 0x2cfe <_ZN14SoftwareSerial5beginEl+0xd8>
    2cee:	2d e6       	ldi	r18, 0x6D	; 109
    2cf0:	30 e0       	ldi	r19, 0x00	; 0
    2cf2:	05 c0       	rjmp	.+10     	; 0x2cfe <_ZN14SoftwareSerial5beginEl+0xd8>
    2cf4:	2b e6       	ldi	r18, 0x6B	; 107
    2cf6:	30 e0       	ldi	r19, 0x00	; 0
    2cf8:	02 c0       	rjmp	.+4      	; 0x2cfe <_ZN14SoftwareSerial5beginEl+0xd8>
    2cfa:	2c e6       	ldi	r18, 0x6C	; 108
    2cfc:	30 e0       	ldi	r19, 0x00	; 0
    2cfe:	3c 8b       	std	Y+20, r19	; 0x14
    2d00:	2b 8b       	std	Y+19, r18	; 0x13
    2d02:	88 30       	cpi	r24, 0x08	; 8
    2d04:	30 f4       	brcc	.+12     	; 0x2d12 <_ZN14SoftwareSerial5beginEl+0xec>
    2d06:	91 e0       	ldi	r25, 0x01	; 1
    2d08:	01 c0       	rjmp	.+2      	; 0x2d0c <_ZN14SoftwareSerial5beginEl+0xe6>
    2d0a:	99 0f       	add	r25, r25
    2d0c:	8a 95       	dec	r24
    2d0e:	ea f7       	brpl	.-6      	; 0x2d0a <_ZN14SoftwareSerial5beginEl+0xe4>
    2d10:	0e c0       	rjmp	.+28     	; 0x2d2e <_ZN14SoftwareSerial5beginEl+0x108>
    2d12:	28 2f       	mov	r18, r24
    2d14:	30 e0       	ldi	r19, 0x00	; 0
    2d16:	8e 30       	cpi	r24, 0x0E	; 14
    2d18:	18 f4       	brcc	.+6      	; 0x2d20 <_ZN14SoftwareSerial5beginEl+0xfa>
    2d1a:	28 50       	subi	r18, 0x08	; 8
    2d1c:	31 09       	sbc	r19, r1
    2d1e:	02 c0       	rjmp	.+4      	; 0x2d24 <_ZN14SoftwareSerial5beginEl+0xfe>
    2d20:	2e 50       	subi	r18, 0x0E	; 14
    2d22:	31 09       	sbc	r19, r1
    2d24:	91 e0       	ldi	r25, 0x01	; 1
    2d26:	01 c0       	rjmp	.+2      	; 0x2d2a <_ZN14SoftwareSerial5beginEl+0x104>
    2d28:	99 0f       	add	r25, r25
    2d2a:	2a 95       	dec	r18
    2d2c:	ea f7       	brpl	.-6      	; 0x2d28 <_ZN14SoftwareSerial5beginEl+0x102>
    2d2e:	9d 8b       	std	Y+21, r25	; 0x15
    2d30:	8c 8d       	ldd	r24, Y+28	; 0x1c
    2d32:	9d 8d       	ldd	r25, Y+29	; 0x1d
    2d34:	01 97       	sbiw	r24, 0x01	; 1
    2d36:	f1 f7       	brne	.-4      	; 0x2d34 <_ZN14SoftwareSerial5beginEl+0x10e>
    2d38:	ce 01       	movw	r24, r28
    2d3a:	df 91       	pop	r29
    2d3c:	cf 91       	pop	r28
    2d3e:	0c 94 ec 14 	jmp	0x29d8	; 0x29d8 <_ZN14SoftwareSerial6listenEv>

00002d42 <_ZN14HardwareSerial9availableEv>:
    2d42:	fc 01       	movw	r30, r24
    2d44:	91 8d       	ldd	r25, Z+25	; 0x19
    2d46:	22 8d       	ldd	r18, Z+26	; 0x1a
    2d48:	89 2f       	mov	r24, r25
    2d4a:	90 e0       	ldi	r25, 0x00	; 0
    2d4c:	80 5c       	subi	r24, 0xC0	; 192
    2d4e:	9f 4f       	sbci	r25, 0xFF	; 255
    2d50:	82 1b       	sub	r24, r18
    2d52:	91 09       	sbc	r25, r1
    2d54:	8f 73       	andi	r24, 0x3F	; 63
    2d56:	99 27       	eor	r25, r25
    2d58:	08 95       	ret

00002d5a <_ZN14HardwareSerial4peekEv>:
    2d5a:	fc 01       	movw	r30, r24
    2d5c:	91 8d       	ldd	r25, Z+25	; 0x19
    2d5e:	82 8d       	ldd	r24, Z+26	; 0x1a
    2d60:	98 17       	cp	r25, r24
    2d62:	31 f0       	breq	.+12     	; 0x2d70 <_ZN14HardwareSerial4peekEv+0x16>
    2d64:	82 8d       	ldd	r24, Z+26	; 0x1a
    2d66:	e8 0f       	add	r30, r24
    2d68:	f1 1d       	adc	r31, r1
    2d6a:	85 8d       	ldd	r24, Z+29	; 0x1d
    2d6c:	90 e0       	ldi	r25, 0x00	; 0
    2d6e:	08 95       	ret
    2d70:	8f ef       	ldi	r24, 0xFF	; 255
    2d72:	9f ef       	ldi	r25, 0xFF	; 255
    2d74:	08 95       	ret

00002d76 <_ZN14HardwareSerial4readEv>:
    2d76:	fc 01       	movw	r30, r24
    2d78:	91 8d       	ldd	r25, Z+25	; 0x19
    2d7a:	82 8d       	ldd	r24, Z+26	; 0x1a
    2d7c:	98 17       	cp	r25, r24
    2d7e:	61 f0       	breq	.+24     	; 0x2d98 <_ZN14HardwareSerial4readEv+0x22>
    2d80:	82 8d       	ldd	r24, Z+26	; 0x1a
    2d82:	df 01       	movw	r26, r30
    2d84:	a8 0f       	add	r26, r24
    2d86:	b1 1d       	adc	r27, r1
    2d88:	5d 96       	adiw	r26, 0x1d	; 29
    2d8a:	8c 91       	ld	r24, X
    2d8c:	92 8d       	ldd	r25, Z+26	; 0x1a
    2d8e:	9f 5f       	subi	r25, 0xFF	; 255
    2d90:	9f 73       	andi	r25, 0x3F	; 63
    2d92:	92 8f       	std	Z+26, r25	; 0x1a
    2d94:	90 e0       	ldi	r25, 0x00	; 0
    2d96:	08 95       	ret
    2d98:	8f ef       	ldi	r24, 0xFF	; 255
    2d9a:	9f ef       	ldi	r25, 0xFF	; 255
    2d9c:	08 95       	ret

00002d9e <_Z14serialEventRunv>:
    2d9e:	8f e1       	ldi	r24, 0x1F	; 31
    2da0:	98 e1       	ldi	r25, 0x18	; 24
    2da2:	89 2b       	or	r24, r25
    2da4:	49 f0       	breq	.+18     	; 0x2db8 <_Z14serialEventRunv+0x1a>
    2da6:	80 e0       	ldi	r24, 0x00	; 0
    2da8:	90 e0       	ldi	r25, 0x00	; 0
    2daa:	89 2b       	or	r24, r25
    2dac:	29 f0       	breq	.+10     	; 0x2db8 <_Z14serialEventRunv+0x1a>
    2dae:	0e 94 1f 18 	call	0x303e	; 0x303e <_Z17Serial0_availablev>
    2db2:	81 11       	cpse	r24, r1
    2db4:	0c 94 00 00 	jmp	0	; 0x0 <__vectors>
    2db8:	08 95       	ret

00002dba <_ZN14HardwareSerial17_tx_udr_empty_irqEv>:
    2dba:	fc 01       	movw	r30, r24
    2dbc:	84 8d       	ldd	r24, Z+28	; 0x1c
    2dbe:	df 01       	movw	r26, r30
    2dc0:	a8 0f       	add	r26, r24
    2dc2:	b1 1d       	adc	r27, r1
    2dc4:	a3 5a       	subi	r26, 0xA3	; 163
    2dc6:	bf 4f       	sbci	r27, 0xFF	; 255
    2dc8:	2c 91       	ld	r18, X
    2dca:	84 8d       	ldd	r24, Z+28	; 0x1c
    2dcc:	90 e0       	ldi	r25, 0x00	; 0
    2dce:	01 96       	adiw	r24, 0x01	; 1
    2dd0:	8f 73       	andi	r24, 0x3F	; 63
    2dd2:	99 27       	eor	r25, r25
    2dd4:	84 8f       	std	Z+28, r24	; 0x1c
    2dd6:	a6 89       	ldd	r26, Z+22	; 0x16
    2dd8:	b7 89       	ldd	r27, Z+23	; 0x17
    2dda:	2c 93       	st	X, r18
    2ddc:	a0 89       	ldd	r26, Z+16	; 0x10
    2dde:	b1 89       	ldd	r27, Z+17	; 0x11
    2de0:	8c 91       	ld	r24, X
    2de2:	80 64       	ori	r24, 0x40	; 64
    2de4:	8c 93       	st	X, r24
    2de6:	93 8d       	ldd	r25, Z+27	; 0x1b
    2de8:	84 8d       	ldd	r24, Z+28	; 0x1c
    2dea:	98 13       	cpse	r25, r24
    2dec:	06 c0       	rjmp	.+12     	; 0x2dfa <_ZN14HardwareSerial17_tx_udr_empty_irqEv+0x40>
    2dee:	02 88       	ldd	r0, Z+18	; 0x12
    2df0:	f3 89       	ldd	r31, Z+19	; 0x13
    2df2:	e0 2d       	mov	r30, r0
    2df4:	80 81       	ld	r24, Z
    2df6:	8f 7d       	andi	r24, 0xDF	; 223
    2df8:	80 83       	st	Z, r24
    2dfa:	08 95       	ret

00002dfc <_ZN14HardwareSerial5flushEv>:
    2dfc:	cf 93       	push	r28
    2dfe:	df 93       	push	r29
    2e00:	ec 01       	movw	r28, r24
    2e02:	88 8d       	ldd	r24, Y+24	; 0x18
    2e04:	88 23       	and	r24, r24
    2e06:	c9 f0       	breq	.+50     	; 0x2e3a <_ZN14HardwareSerial5flushEv+0x3e>
    2e08:	ea 89       	ldd	r30, Y+18	; 0x12
    2e0a:	fb 89       	ldd	r31, Y+19	; 0x13
    2e0c:	80 81       	ld	r24, Z
    2e0e:	85 fd       	sbrc	r24, 5
    2e10:	05 c0       	rjmp	.+10     	; 0x2e1c <_ZN14HardwareSerial5flushEv+0x20>
    2e12:	a8 89       	ldd	r26, Y+16	; 0x10
    2e14:	b9 89       	ldd	r27, Y+17	; 0x11
    2e16:	8c 91       	ld	r24, X
    2e18:	86 fd       	sbrc	r24, 6
    2e1a:	0f c0       	rjmp	.+30     	; 0x2e3a <_ZN14HardwareSerial5flushEv+0x3e>
    2e1c:	0f b6       	in	r0, 0x3f	; 63
    2e1e:	07 fc       	sbrc	r0, 7
    2e20:	f5 cf       	rjmp	.-22     	; 0x2e0c <_ZN14HardwareSerial5flushEv+0x10>
    2e22:	80 81       	ld	r24, Z
    2e24:	85 ff       	sbrs	r24, 5
    2e26:	f2 cf       	rjmp	.-28     	; 0x2e0c <_ZN14HardwareSerial5flushEv+0x10>
    2e28:	a8 89       	ldd	r26, Y+16	; 0x10
    2e2a:	b9 89       	ldd	r27, Y+17	; 0x11
    2e2c:	8c 91       	ld	r24, X
    2e2e:	85 ff       	sbrs	r24, 5
    2e30:	ed cf       	rjmp	.-38     	; 0x2e0c <_ZN14HardwareSerial5flushEv+0x10>
    2e32:	ce 01       	movw	r24, r28
    2e34:	0e 94 dd 16 	call	0x2dba	; 0x2dba <_ZN14HardwareSerial17_tx_udr_empty_irqEv>
    2e38:	e7 cf       	rjmp	.-50     	; 0x2e08 <_ZN14HardwareSerial5flushEv+0xc>
    2e3a:	df 91       	pop	r29
    2e3c:	cf 91       	pop	r28
    2e3e:	08 95       	ret

00002e40 <_ZN14HardwareSerial5writeEh>:
    2e40:	ef 92       	push	r14
    2e42:	ff 92       	push	r15
    2e44:	0f 93       	push	r16
    2e46:	1f 93       	push	r17
    2e48:	cf 93       	push	r28
    2e4a:	df 93       	push	r29
    2e4c:	ec 01       	movw	r28, r24
    2e4e:	81 e0       	ldi	r24, 0x01	; 1
    2e50:	88 8f       	std	Y+24, r24	; 0x18
    2e52:	9b 8d       	ldd	r25, Y+27	; 0x1b
    2e54:	8c 8d       	ldd	r24, Y+28	; 0x1c
    2e56:	98 13       	cpse	r25, r24
    2e58:	05 c0       	rjmp	.+10     	; 0x2e64 <_ZN14HardwareSerial5writeEh+0x24>
    2e5a:	e8 89       	ldd	r30, Y+16	; 0x10
    2e5c:	f9 89       	ldd	r31, Y+17	; 0x11
    2e5e:	80 81       	ld	r24, Z
    2e60:	85 fd       	sbrc	r24, 5
    2e62:	24 c0       	rjmp	.+72     	; 0x2eac <_ZN14HardwareSerial5writeEh+0x6c>
    2e64:	f6 2e       	mov	r15, r22
    2e66:	0b 8d       	ldd	r16, Y+27	; 0x1b
    2e68:	10 e0       	ldi	r17, 0x00	; 0
    2e6a:	0f 5f       	subi	r16, 0xFF	; 255
    2e6c:	1f 4f       	sbci	r17, 0xFF	; 255
    2e6e:	0f 73       	andi	r16, 0x3F	; 63
    2e70:	11 27       	eor	r17, r17
    2e72:	e0 2e       	mov	r14, r16
    2e74:	8c 8d       	ldd	r24, Y+28	; 0x1c
    2e76:	e8 12       	cpse	r14, r24
    2e78:	0c c0       	rjmp	.+24     	; 0x2e92 <_ZN14HardwareSerial5writeEh+0x52>
    2e7a:	0f b6       	in	r0, 0x3f	; 63
    2e7c:	07 fc       	sbrc	r0, 7
    2e7e:	fa cf       	rjmp	.-12     	; 0x2e74 <_ZN14HardwareSerial5writeEh+0x34>
    2e80:	e8 89       	ldd	r30, Y+16	; 0x10
    2e82:	f9 89       	ldd	r31, Y+17	; 0x11
    2e84:	80 81       	ld	r24, Z
    2e86:	85 ff       	sbrs	r24, 5
    2e88:	f5 cf       	rjmp	.-22     	; 0x2e74 <_ZN14HardwareSerial5writeEh+0x34>
    2e8a:	ce 01       	movw	r24, r28
    2e8c:	0e 94 dd 16 	call	0x2dba	; 0x2dba <_ZN14HardwareSerial17_tx_udr_empty_irqEv>
    2e90:	f1 cf       	rjmp	.-30     	; 0x2e74 <_ZN14HardwareSerial5writeEh+0x34>
    2e92:	8b 8d       	ldd	r24, Y+27	; 0x1b
    2e94:	fe 01       	movw	r30, r28
    2e96:	e8 0f       	add	r30, r24
    2e98:	f1 1d       	adc	r31, r1
    2e9a:	e3 5a       	subi	r30, 0xA3	; 163
    2e9c:	ff 4f       	sbci	r31, 0xFF	; 255
    2e9e:	f0 82       	st	Z, r15
    2ea0:	0b 8f       	std	Y+27, r16	; 0x1b
    2ea2:	ea 89       	ldd	r30, Y+18	; 0x12
    2ea4:	fb 89       	ldd	r31, Y+19	; 0x13
    2ea6:	80 81       	ld	r24, Z
    2ea8:	80 62       	ori	r24, 0x20	; 32
    2eaa:	07 c0       	rjmp	.+14     	; 0x2eba <_ZN14HardwareSerial5writeEh+0x7a>
    2eac:	ee 89       	ldd	r30, Y+22	; 0x16
    2eae:	ff 89       	ldd	r31, Y+23	; 0x17
    2eb0:	60 83       	st	Z, r22
    2eb2:	e8 89       	ldd	r30, Y+16	; 0x10
    2eb4:	f9 89       	ldd	r31, Y+17	; 0x11
    2eb6:	80 81       	ld	r24, Z
    2eb8:	80 64       	ori	r24, 0x40	; 64
    2eba:	80 83       	st	Z, r24
    2ebc:	81 e0       	ldi	r24, 0x01	; 1
    2ebe:	90 e0       	ldi	r25, 0x00	; 0
    2ec0:	df 91       	pop	r29
    2ec2:	cf 91       	pop	r28
    2ec4:	1f 91       	pop	r17
    2ec6:	0f 91       	pop	r16
    2ec8:	ff 90       	pop	r15
    2eca:	ef 90       	pop	r14
    2ecc:	08 95       	ret

00002ece <_ZN14HardwareSerial5beginEmh>:
    2ece:	cf 92       	push	r12
    2ed0:	df 92       	push	r13
    2ed2:	ef 92       	push	r14
    2ed4:	ff 92       	push	r15
    2ed6:	1f 93       	push	r17
    2ed8:	cf 93       	push	r28
    2eda:	df 93       	push	r29
    2edc:	ec 01       	movw	r28, r24
    2ede:	6a 01       	movw	r12, r20
    2ee0:	7b 01       	movw	r14, r22
    2ee2:	12 2f       	mov	r17, r18
    2ee4:	60 e8       	ldi	r22, 0x80	; 128
    2ee6:	74 e8       	ldi	r23, 0x84	; 132
    2ee8:	8e e1       	ldi	r24, 0x1E	; 30
    2eea:	90 e0       	ldi	r25, 0x00	; 0
    2eec:	a7 01       	movw	r20, r14
    2eee:	96 01       	movw	r18, r12
    2ef0:	0e 94 c5 1f 	call	0x3f8a	; 0x3f8a <__udivmodsi4>
    2ef4:	da 01       	movw	r26, r20
    2ef6:	c9 01       	movw	r24, r18
    2ef8:	01 97       	sbiw	r24, 0x01	; 1
    2efa:	a1 09       	sbc	r26, r1
    2efc:	b1 09       	sbc	r27, r1
    2efe:	b6 95       	lsr	r27
    2f00:	a7 95       	ror	r26
    2f02:	97 95       	ror	r25
    2f04:	87 95       	ror	r24
    2f06:	ac 01       	movw	r20, r24
    2f08:	e8 89       	ldd	r30, Y+16	; 0x10
    2f0a:	f9 89       	ldd	r31, Y+17	; 0x11
    2f0c:	82 e0       	ldi	r24, 0x02	; 2
    2f0e:	80 83       	st	Z, r24
    2f10:	41 15       	cp	r20, r1
    2f12:	80 e1       	ldi	r24, 0x10	; 16
    2f14:	58 07       	cpc	r21, r24
    2f16:	a8 f0       	brcs	.+42     	; 0x2f42 <_ZN14HardwareSerial5beginEmh+0x74>
    2f18:	e8 89       	ldd	r30, Y+16	; 0x10
    2f1a:	f9 89       	ldd	r31, Y+17	; 0x11
    2f1c:	10 82       	st	Z, r1
    2f1e:	60 e4       	ldi	r22, 0x40	; 64
    2f20:	72 e4       	ldi	r23, 0x42	; 66
    2f22:	8f e0       	ldi	r24, 0x0F	; 15
    2f24:	90 e0       	ldi	r25, 0x00	; 0
    2f26:	a7 01       	movw	r20, r14
    2f28:	96 01       	movw	r18, r12
    2f2a:	0e 94 c5 1f 	call	0x3f8a	; 0x3f8a <__udivmodsi4>
    2f2e:	ba 01       	movw	r22, r20
    2f30:	a9 01       	movw	r20, r18
    2f32:	41 50       	subi	r20, 0x01	; 1
    2f34:	51 09       	sbc	r21, r1
    2f36:	61 09       	sbc	r22, r1
    2f38:	71 09       	sbc	r23, r1
    2f3a:	76 95       	lsr	r23
    2f3c:	67 95       	ror	r22
    2f3e:	57 95       	ror	r21
    2f40:	47 95       	ror	r20
    2f42:	ec 85       	ldd	r30, Y+12	; 0x0c
    2f44:	fd 85       	ldd	r31, Y+13	; 0x0d
    2f46:	50 83       	st	Z, r21
    2f48:	ee 85       	ldd	r30, Y+14	; 0x0e
    2f4a:	ff 85       	ldd	r31, Y+15	; 0x0f
    2f4c:	40 83       	st	Z, r20
    2f4e:	18 8e       	std	Y+24, r1	; 0x18
    2f50:	ec 89       	ldd	r30, Y+20	; 0x14
    2f52:	fd 89       	ldd	r31, Y+21	; 0x15
    2f54:	10 83       	st	Z, r17
    2f56:	ea 89       	ldd	r30, Y+18	; 0x12
    2f58:	fb 89       	ldd	r31, Y+19	; 0x13
    2f5a:	80 81       	ld	r24, Z
    2f5c:	80 61       	ori	r24, 0x10	; 16
    2f5e:	80 83       	st	Z, r24
    2f60:	ea 89       	ldd	r30, Y+18	; 0x12
    2f62:	fb 89       	ldd	r31, Y+19	; 0x13
    2f64:	80 81       	ld	r24, Z
    2f66:	88 60       	ori	r24, 0x08	; 8
    2f68:	80 83       	st	Z, r24
    2f6a:	ea 89       	ldd	r30, Y+18	; 0x12
    2f6c:	fb 89       	ldd	r31, Y+19	; 0x13
    2f6e:	80 81       	ld	r24, Z
    2f70:	80 68       	ori	r24, 0x80	; 128
    2f72:	80 83       	st	Z, r24
    2f74:	ea 89       	ldd	r30, Y+18	; 0x12
    2f76:	fb 89       	ldd	r31, Y+19	; 0x13
    2f78:	80 81       	ld	r24, Z
    2f7a:	8f 7d       	andi	r24, 0xDF	; 223
    2f7c:	80 83       	st	Z, r24
    2f7e:	df 91       	pop	r29
    2f80:	cf 91       	pop	r28
    2f82:	1f 91       	pop	r17
    2f84:	ff 90       	pop	r15
    2f86:	ef 90       	pop	r14
    2f88:	df 90       	pop	r13
    2f8a:	cf 90       	pop	r12
    2f8c:	08 95       	ret

00002f8e <__vector_18>:
    2f8e:	1f 92       	push	r1
    2f90:	0f 92       	push	r0
    2f92:	0f b6       	in	r0, 0x3f	; 63
    2f94:	0f 92       	push	r0
    2f96:	11 24       	eor	r1, r1
    2f98:	2f 93       	push	r18
    2f9a:	8f 93       	push	r24
    2f9c:	9f 93       	push	r25
    2f9e:	ef 93       	push	r30
    2fa0:	ff 93       	push	r31
    2fa2:	e0 91 cc 07 	lds	r30, 0x07CC
    2fa6:	f0 91 cd 07 	lds	r31, 0x07CD
    2faa:	80 81       	ld	r24, Z
    2fac:	e0 91 d2 07 	lds	r30, 0x07D2
    2fb0:	f0 91 d3 07 	lds	r31, 0x07D3
    2fb4:	82 fd       	sbrc	r24, 2
    2fb6:	12 c0       	rjmp	.+36     	; 0x2fdc <__vector_18+0x4e>
    2fb8:	90 81       	ld	r25, Z
    2fba:	80 91 d5 07 	lds	r24, 0x07D5
    2fbe:	8f 5f       	subi	r24, 0xFF	; 255
    2fc0:	8f 73       	andi	r24, 0x3F	; 63
    2fc2:	20 91 d6 07 	lds	r18, 0x07D6
    2fc6:	82 17       	cp	r24, r18
    2fc8:	51 f0       	breq	.+20     	; 0x2fde <__vector_18+0x50>
    2fca:	e0 91 d5 07 	lds	r30, 0x07D5
    2fce:	f0 e0       	ldi	r31, 0x00	; 0
    2fd0:	e4 54       	subi	r30, 0x44	; 68
    2fd2:	f8 4f       	sbci	r31, 0xF8	; 248
    2fd4:	95 8f       	std	Z+29, r25	; 0x1d
    2fd6:	80 93 d5 07 	sts	0x07D5, r24
    2fda:	01 c0       	rjmp	.+2      	; 0x2fde <__vector_18+0x50>
    2fdc:	80 81       	ld	r24, Z
    2fde:	ff 91       	pop	r31
    2fe0:	ef 91       	pop	r30
    2fe2:	9f 91       	pop	r25
    2fe4:	8f 91       	pop	r24
    2fe6:	2f 91       	pop	r18
    2fe8:	0f 90       	pop	r0
    2fea:	0f be       	out	0x3f, r0	; 63
    2fec:	0f 90       	pop	r0
    2fee:	1f 90       	pop	r1
    2ff0:	18 95       	reti

00002ff2 <__vector_19>:
    2ff2:	1f 92       	push	r1
    2ff4:	0f 92       	push	r0
    2ff6:	0f b6       	in	r0, 0x3f	; 63
    2ff8:	0f 92       	push	r0
    2ffa:	11 24       	eor	r1, r1
    2ffc:	2f 93       	push	r18
    2ffe:	3f 93       	push	r19
    3000:	4f 93       	push	r20
    3002:	5f 93       	push	r21
    3004:	6f 93       	push	r22
    3006:	7f 93       	push	r23
    3008:	8f 93       	push	r24
    300a:	9f 93       	push	r25
    300c:	af 93       	push	r26
    300e:	bf 93       	push	r27
    3010:	ef 93       	push	r30
    3012:	ff 93       	push	r31
    3014:	8c eb       	ldi	r24, 0xBC	; 188
    3016:	97 e0       	ldi	r25, 0x07	; 7
    3018:	0e 94 dd 16 	call	0x2dba	; 0x2dba <_ZN14HardwareSerial17_tx_udr_empty_irqEv>
    301c:	ff 91       	pop	r31
    301e:	ef 91       	pop	r30
    3020:	bf 91       	pop	r27
    3022:	af 91       	pop	r26
    3024:	9f 91       	pop	r25
    3026:	8f 91       	pop	r24
    3028:	7f 91       	pop	r23
    302a:	6f 91       	pop	r22
    302c:	5f 91       	pop	r21
    302e:	4f 91       	pop	r20
    3030:	3f 91       	pop	r19
    3032:	2f 91       	pop	r18
    3034:	0f 90       	pop	r0
    3036:	0f be       	out	0x3f, r0	; 63
    3038:	0f 90       	pop	r0
    303a:	1f 90       	pop	r1
    303c:	18 95       	reti

0000303e <_Z17Serial0_availablev>:
    303e:	8c eb       	ldi	r24, 0xBC	; 188
    3040:	97 e0       	ldi	r25, 0x07	; 7
    3042:	0e 94 a1 16 	call	0x2d42	; 0x2d42 <_ZN14HardwareSerial9availableEv>
    3046:	21 e0       	ldi	r18, 0x01	; 1
    3048:	89 2b       	or	r24, r25
    304a:	09 f4       	brne	.+2      	; 0x304e <_Z17Serial0_availablev+0x10>
    304c:	20 e0       	ldi	r18, 0x00	; 0
    304e:	82 2f       	mov	r24, r18
    3050:	08 95       	ret

00003052 <_GLOBAL__sub_I___vector_18>:
    3052:	ec eb       	ldi	r30, 0xBC	; 188
    3054:	f7 e0       	ldi	r31, 0x07	; 7
    3056:	13 82       	std	Z+3, r1	; 0x03
    3058:	12 82       	std	Z+2, r1	; 0x02
    305a:	88 ee       	ldi	r24, 0xE8	; 232
    305c:	93 e0       	ldi	r25, 0x03	; 3
    305e:	a0 e0       	ldi	r26, 0x00	; 0
    3060:	b0 e0       	ldi	r27, 0x00	; 0
    3062:	84 83       	std	Z+4, r24	; 0x04
    3064:	95 83       	std	Z+5, r25	; 0x05
    3066:	a6 83       	std	Z+6, r26	; 0x06
    3068:	b7 83       	std	Z+7, r27	; 0x07
    306a:	88 e5       	ldi	r24, 0x58	; 88
    306c:	95 e0       	ldi	r25, 0x05	; 5
    306e:	91 83       	std	Z+1, r25	; 0x01
    3070:	80 83       	st	Z, r24
    3072:	85 ec       	ldi	r24, 0xC5	; 197
    3074:	90 e0       	ldi	r25, 0x00	; 0
    3076:	95 87       	std	Z+13, r25	; 0x0d
    3078:	84 87       	std	Z+12, r24	; 0x0c
    307a:	84 ec       	ldi	r24, 0xC4	; 196
    307c:	90 e0       	ldi	r25, 0x00	; 0
    307e:	97 87       	std	Z+15, r25	; 0x0f
    3080:	86 87       	std	Z+14, r24	; 0x0e
    3082:	80 ec       	ldi	r24, 0xC0	; 192
    3084:	90 e0       	ldi	r25, 0x00	; 0
    3086:	91 8b       	std	Z+17, r25	; 0x11
    3088:	80 8b       	std	Z+16, r24	; 0x10
    308a:	81 ec       	ldi	r24, 0xC1	; 193
    308c:	90 e0       	ldi	r25, 0x00	; 0
    308e:	93 8b       	std	Z+19, r25	; 0x13
    3090:	82 8b       	std	Z+18, r24	; 0x12
    3092:	82 ec       	ldi	r24, 0xC2	; 194
    3094:	90 e0       	ldi	r25, 0x00	; 0
    3096:	95 8b       	std	Z+21, r25	; 0x15
    3098:	84 8b       	std	Z+20, r24	; 0x14
    309a:	86 ec       	ldi	r24, 0xC6	; 198
    309c:	90 e0       	ldi	r25, 0x00	; 0
    309e:	97 8b       	std	Z+23, r25	; 0x17
    30a0:	86 8b       	std	Z+22, r24	; 0x16
    30a2:	11 8e       	std	Z+25, r1	; 0x19
    30a4:	12 8e       	std	Z+26, r1	; 0x1a
    30a6:	13 8e       	std	Z+27, r1	; 0x1b
    30a8:	14 8e       	std	Z+28, r1	; 0x1c
    30aa:	08 95       	ret

000030ac <yield>:
    30ac:	08 95       	ret

000030ae <initVariant>:
    30ae:	08 95       	ret

000030b0 <main>:
    30b0:	0e 94 48 1c 	call	0x3890	; 0x3890 <init>
    30b4:	0e 94 57 18 	call	0x30ae	; 0x30ae <initVariant>
    30b8:	0e 94 e3 11 	call	0x23c6	; 0x23c6 <setup>
    30bc:	cf ec       	ldi	r28, 0xCF	; 207
    30be:	d6 e1       	ldi	r29, 0x16	; 22
    30c0:	0e 94 0a 13 	call	0x2614	; 0x2614 <loop>
    30c4:	20 97       	sbiw	r28, 0x00	; 0
    30c6:	e1 f3       	breq	.-8      	; 0x30c0 <main+0x10>
    30c8:	0e 94 cf 16 	call	0x2d9e	; 0x2d9e <_Z14serialEventRunv>
    30cc:	f9 cf       	rjmp	.-14     	; 0x30c0 <main+0x10>

000030ce <_ZN5Print5writeEPKhj>:
    30ce:	cf 92       	push	r12
    30d0:	df 92       	push	r13
    30d2:	ef 92       	push	r14
    30d4:	ff 92       	push	r15
    30d6:	0f 93       	push	r16
    30d8:	1f 93       	push	r17
    30da:	cf 93       	push	r28
    30dc:	df 93       	push	r29
    30de:	6c 01       	movw	r12, r24
    30e0:	eb 01       	movw	r28, r22
    30e2:	7b 01       	movw	r14, r22
    30e4:	e4 0e       	add	r14, r20
    30e6:	f5 1e       	adc	r15, r21
    30e8:	00 e0       	ldi	r16, 0x00	; 0
    30ea:	10 e0       	ldi	r17, 0x00	; 0
    30ec:	ce 15       	cp	r28, r14
    30ee:	df 05       	cpc	r29, r15
    30f0:	61 f0       	breq	.+24     	; 0x310a <_ZN5Print5writeEPKhj+0x3c>
    30f2:	69 91       	ld	r22, Y+
    30f4:	d6 01       	movw	r26, r12
    30f6:	ed 91       	ld	r30, X+
    30f8:	fc 91       	ld	r31, X
    30fa:	01 90       	ld	r0, Z+
    30fc:	f0 81       	ld	r31, Z
    30fe:	e0 2d       	mov	r30, r0
    3100:	c6 01       	movw	r24, r12
    3102:	09 95       	icall
    3104:	08 0f       	add	r16, r24
    3106:	19 1f       	adc	r17, r25
    3108:	f1 cf       	rjmp	.-30     	; 0x30ec <_ZN5Print5writeEPKhj+0x1e>
    310a:	c8 01       	movw	r24, r16
    310c:	df 91       	pop	r29
    310e:	cf 91       	pop	r28
    3110:	1f 91       	pop	r17
    3112:	0f 91       	pop	r16
    3114:	ff 90       	pop	r15
    3116:	ef 90       	pop	r14
    3118:	df 90       	pop	r13
    311a:	cf 90       	pop	r12
    311c:	08 95       	ret

0000311e <_ZN5Print5writeEPKc>:
    311e:	61 15       	cp	r22, r1
    3120:	71 05       	cpc	r23, r1
    3122:	79 f0       	breq	.+30     	; 0x3142 <_ZN5Print5writeEPKc+0x24>
    3124:	fb 01       	movw	r30, r22
    3126:	01 90       	ld	r0, Z+
    3128:	00 20       	and	r0, r0
    312a:	e9 f7       	brne	.-6      	; 0x3126 <_ZN5Print5writeEPKc+0x8>
    312c:	31 97       	sbiw	r30, 0x01	; 1
    312e:	af 01       	movw	r20, r30
    3130:	46 1b       	sub	r20, r22
    3132:	57 0b       	sbc	r21, r23
    3134:	dc 01       	movw	r26, r24
    3136:	ed 91       	ld	r30, X+
    3138:	fc 91       	ld	r31, X
    313a:	02 80       	ldd	r0, Z+2	; 0x02
    313c:	f3 81       	ldd	r31, Z+3	; 0x03
    313e:	e0 2d       	mov	r30, r0
    3140:	09 94       	ijmp
    3142:	80 e0       	ldi	r24, 0x00	; 0
    3144:	90 e0       	ldi	r25, 0x00	; 0
    3146:	08 95       	ret

00003148 <_ZN5Print5printEPKc>:
    3148:	0c 94 8f 18 	jmp	0x311e	; 0x311e <_ZN5Print5writeEPKc>

0000314c <_ZN5Print5printEc>:
    314c:	dc 01       	movw	r26, r24
    314e:	ed 91       	ld	r30, X+
    3150:	fc 91       	ld	r31, X
    3152:	01 90       	ld	r0, Z+
    3154:	f0 81       	ld	r31, Z
    3156:	e0 2d       	mov	r30, r0
    3158:	09 94       	ijmp

0000315a <_ZN5Print7printlnEv>:
    315a:	6b ef       	ldi	r22, 0xFB	; 251
    315c:	74 e0       	ldi	r23, 0x04	; 4
    315e:	0c 94 8f 18 	jmp	0x311e	; 0x311e <_ZN5Print5writeEPKc>

00003162 <_ZN5Print7printlnEPKc>:
    3162:	0f 93       	push	r16
    3164:	1f 93       	push	r17
    3166:	cf 93       	push	r28
    3168:	df 93       	push	r29
    316a:	ec 01       	movw	r28, r24
    316c:	0e 94 8f 18 	call	0x311e	; 0x311e <_ZN5Print5writeEPKc>
    3170:	8c 01       	movw	r16, r24
    3172:	ce 01       	movw	r24, r28
    3174:	0e 94 ad 18 	call	0x315a	; 0x315a <_ZN5Print7printlnEv>
    3178:	80 0f       	add	r24, r16
    317a:	91 1f       	adc	r25, r17
    317c:	df 91       	pop	r29
    317e:	cf 91       	pop	r28
    3180:	1f 91       	pop	r17
    3182:	0f 91       	pop	r16
    3184:	08 95       	ret

00003186 <_ZN5Print11printNumberEmh>:
    3186:	8f 92       	push	r8
    3188:	9f 92       	push	r9
    318a:	af 92       	push	r10
    318c:	bf 92       	push	r11
    318e:	cf 92       	push	r12
    3190:	df 92       	push	r13
    3192:	ef 92       	push	r14
    3194:	ff 92       	push	r15
    3196:	0f 93       	push	r16
    3198:	1f 93       	push	r17
    319a:	cf 93       	push	r28
    319c:	df 93       	push	r29
    319e:	cd b7       	in	r28, 0x3d	; 61
    31a0:	de b7       	in	r29, 0x3e	; 62
    31a2:	a1 97       	sbiw	r28, 0x21	; 33
    31a4:	0f b6       	in	r0, 0x3f	; 63
    31a6:	f8 94       	cli
    31a8:	de bf       	out	0x3e, r29	; 62
    31aa:	0f be       	out	0x3f, r0	; 63
    31ac:	cd bf       	out	0x3d, r28	; 61
    31ae:	6c 01       	movw	r12, r24
    31b0:	14 2f       	mov	r17, r20
    31b2:	e5 2f       	mov	r30, r21
    31b4:	cb 01       	movw	r24, r22
    31b6:	02 2f       	mov	r16, r18
    31b8:	19 a2       	std	Y+33, r1	; 0x21
    31ba:	22 30       	cpi	r18, 0x02	; 2
    31bc:	08 f4       	brcc	.+2      	; 0x31c0 <_ZN5Print11printNumberEmh+0x3a>
    31be:	0a e0       	ldi	r16, 0x0A	; 10
    31c0:	7e 01       	movw	r14, r28
    31c2:	21 e2       	ldi	r18, 0x21	; 33
    31c4:	e2 0e       	add	r14, r18
    31c6:	f1 1c       	adc	r15, r1
    31c8:	80 2e       	mov	r8, r16
    31ca:	91 2c       	mov	r9, r1
    31cc:	a1 2c       	mov	r10, r1
    31ce:	b1 2c       	mov	r11, r1
    31d0:	61 2f       	mov	r22, r17
    31d2:	7e 2f       	mov	r23, r30
    31d4:	a5 01       	movw	r20, r10
    31d6:	94 01       	movw	r18, r8
    31d8:	0e 94 c5 1f 	call	0x3f8a	; 0x3f8a <__udivmodsi4>
    31dc:	02 9f       	mul	r16, r18
    31de:	10 19       	sub	r17, r0
    31e0:	11 24       	eor	r1, r1
    31e2:	81 e0       	ldi	r24, 0x01	; 1
    31e4:	e8 1a       	sub	r14, r24
    31e6:	f1 08       	sbc	r15, r1
    31e8:	1a 30       	cpi	r17, 0x0A	; 10
    31ea:	10 f4       	brcc	.+4      	; 0x31f0 <_ZN5Print11printNumberEmh+0x6a>
    31ec:	10 5d       	subi	r17, 0xD0	; 208
    31ee:	01 c0       	rjmp	.+2      	; 0x31f2 <_ZN5Print11printNumberEmh+0x6c>
    31f0:	19 5c       	subi	r17, 0xC9	; 201
    31f2:	f7 01       	movw	r30, r14
    31f4:	10 83       	st	Z, r17
    31f6:	12 2f       	mov	r17, r18
    31f8:	e3 2f       	mov	r30, r19
    31fa:	ca 01       	movw	r24, r20
    31fc:	23 2b       	or	r18, r19
    31fe:	24 2b       	or	r18, r20
    3200:	25 2b       	or	r18, r21
    3202:	31 f7       	brne	.-52     	; 0x31d0 <_ZN5Print11printNumberEmh+0x4a>
    3204:	b7 01       	movw	r22, r14
    3206:	c6 01       	movw	r24, r12
    3208:	0e 94 8f 18 	call	0x311e	; 0x311e <_ZN5Print5writeEPKc>
    320c:	a1 96       	adiw	r28, 0x21	; 33
    320e:	0f b6       	in	r0, 0x3f	; 63
    3210:	f8 94       	cli
    3212:	de bf       	out	0x3e, r29	; 62
    3214:	0f be       	out	0x3f, r0	; 63
    3216:	cd bf       	out	0x3d, r28	; 61
    3218:	df 91       	pop	r29
    321a:	cf 91       	pop	r28
    321c:	1f 91       	pop	r17
    321e:	0f 91       	pop	r16
    3220:	ff 90       	pop	r15
    3222:	ef 90       	pop	r14
    3224:	df 90       	pop	r13
    3226:	cf 90       	pop	r12
    3228:	bf 90       	pop	r11
    322a:	af 90       	pop	r10
    322c:	9f 90       	pop	r9
    322e:	8f 90       	pop	r8
    3230:	08 95       	ret

00003232 <_ZN5Print5printEli>:
    3232:	cf 92       	push	r12
    3234:	df 92       	push	r13
    3236:	ef 92       	push	r14
    3238:	ff 92       	push	r15
    323a:	0f 93       	push	r16
    323c:	1f 93       	push	r17
    323e:	cf 93       	push	r28
    3240:	df 93       	push	r29
    3242:	ec 01       	movw	r28, r24
    3244:	6a 01       	movw	r12, r20
    3246:	7b 01       	movw	r14, r22
    3248:	21 15       	cp	r18, r1
    324a:	31 05       	cpc	r19, r1
    324c:	79 f4       	brne	.+30     	; 0x326c <_ZN5Print5printEli+0x3a>
    324e:	e8 81       	ld	r30, Y
    3250:	f9 81       	ldd	r31, Y+1	; 0x01
    3252:	01 90       	ld	r0, Z+
    3254:	f0 81       	ld	r31, Z
    3256:	e0 2d       	mov	r30, r0
    3258:	64 2f       	mov	r22, r20
    325a:	df 91       	pop	r29
    325c:	cf 91       	pop	r28
    325e:	1f 91       	pop	r17
    3260:	0f 91       	pop	r16
    3262:	ff 90       	pop	r15
    3264:	ef 90       	pop	r14
    3266:	df 90       	pop	r13
    3268:	cf 90       	pop	r12
    326a:	09 94       	ijmp
    326c:	2a 30       	cpi	r18, 0x0A	; 10
    326e:	31 05       	cpc	r19, r1
    3270:	e9 f4       	brne	.+58     	; 0x32ac <_ZN5Print5printEli+0x7a>
    3272:	77 ff       	sbrs	r23, 7
    3274:	1a c0       	rjmp	.+52     	; 0x32aa <_ZN5Print5printEli+0x78>
    3276:	6d e2       	ldi	r22, 0x2D	; 45
    3278:	0e 94 a6 18 	call	0x314c	; 0x314c <_ZN5Print5printEc>
    327c:	8c 01       	movw	r16, r24
    327e:	44 27       	eor	r20, r20
    3280:	55 27       	eor	r21, r21
    3282:	ba 01       	movw	r22, r20
    3284:	4c 19       	sub	r20, r12
    3286:	5d 09       	sbc	r21, r13
    3288:	6e 09       	sbc	r22, r14
    328a:	7f 09       	sbc	r23, r15
    328c:	2a e0       	ldi	r18, 0x0A	; 10
    328e:	ce 01       	movw	r24, r28
    3290:	0e 94 c3 18 	call	0x3186	; 0x3186 <_ZN5Print11printNumberEmh>
    3294:	80 0f       	add	r24, r16
    3296:	91 1f       	adc	r25, r17
    3298:	df 91       	pop	r29
    329a:	cf 91       	pop	r28
    329c:	1f 91       	pop	r17
    329e:	0f 91       	pop	r16
    32a0:	ff 90       	pop	r15
    32a2:	ef 90       	pop	r14
    32a4:	df 90       	pop	r13
    32a6:	cf 90       	pop	r12
    32a8:	08 95       	ret
    32aa:	2a e0       	ldi	r18, 0x0A	; 10
    32ac:	b7 01       	movw	r22, r14
    32ae:	a6 01       	movw	r20, r12
    32b0:	ce 01       	movw	r24, r28
    32b2:	df 91       	pop	r29
    32b4:	cf 91       	pop	r28
    32b6:	1f 91       	pop	r17
    32b8:	0f 91       	pop	r16
    32ba:	ff 90       	pop	r15
    32bc:	ef 90       	pop	r14
    32be:	df 90       	pop	r13
    32c0:	cf 90       	pop	r12
    32c2:	0c 94 c3 18 	jmp	0x3186	; 0x3186 <_ZN5Print11printNumberEmh>

000032c6 <_ZN5Print10printFloatEdh>:
    32c6:	4f 92       	push	r4
    32c8:	5f 92       	push	r5
    32ca:	6f 92       	push	r6
    32cc:	7f 92       	push	r7
    32ce:	8f 92       	push	r8
    32d0:	9f 92       	push	r9
    32d2:	af 92       	push	r10
    32d4:	bf 92       	push	r11
    32d6:	cf 92       	push	r12
    32d8:	df 92       	push	r13
    32da:	ef 92       	push	r14
    32dc:	ff 92       	push	r15
    32de:	cf 93       	push	r28
    32e0:	df 93       	push	r29
    32e2:	ec 01       	movw	r28, r24
    32e4:	6a 01       	movw	r12, r20
    32e6:	7b 01       	movw	r14, r22
    32e8:	b2 2e       	mov	r11, r18
    32ea:	9a 01       	movw	r18, r20
    32ec:	ab 01       	movw	r20, r22
    32ee:	c7 01       	movw	r24, r14
    32f0:	b6 01       	movw	r22, r12
    32f2:	0e 94 9c 1f 	call	0x3f38	; 0x3f38 <__unordsf2>
    32f6:	88 23       	and	r24, r24
    32f8:	19 f0       	breq	.+6      	; 0x3300 <_ZN5Print10printFloatEdh+0x3a>
    32fa:	64 e6       	ldi	r22, 0x64	; 100
    32fc:	75 e0       	ldi	r23, 0x05	; 5
    32fe:	27 c0       	rjmp	.+78     	; 0x334e <_ZN5Print10printFloatEdh+0x88>
    3300:	26 01       	movw	r4, r12
    3302:	37 01       	movw	r6, r14
    3304:	e8 94       	clt
    3306:	77 f8       	bld	r7, 7
    3308:	2f ef       	ldi	r18, 0xFF	; 255
    330a:	3f ef       	ldi	r19, 0xFF	; 255
    330c:	4f e7       	ldi	r20, 0x7F	; 127
    330e:	5f e7       	ldi	r21, 0x7F	; 127
    3310:	c3 01       	movw	r24, r6
    3312:	b2 01       	movw	r22, r4
    3314:	0e 94 9c 1f 	call	0x3f38	; 0x3f38 <__unordsf2>
    3318:	81 11       	cpse	r24, r1
    331a:	0d c0       	rjmp	.+26     	; 0x3336 <_ZN5Print10printFloatEdh+0x70>
    331c:	2f ef       	ldi	r18, 0xFF	; 255
    331e:	3f ef       	ldi	r19, 0xFF	; 255
    3320:	4f e7       	ldi	r20, 0x7F	; 127
    3322:	5f e7       	ldi	r21, 0x7F	; 127
    3324:	c3 01       	movw	r24, r6
    3326:	b2 01       	movw	r22, r4
    3328:	0e 94 cb 1d 	call	0x3b96	; 0x3b96 <__cmpsf2>
    332c:	18 16       	cp	r1, r24
    332e:	1c f4       	brge	.+6      	; 0x3336 <_ZN5Print10printFloatEdh+0x70>
    3330:	68 e6       	ldi	r22, 0x68	; 104
    3332:	75 e0       	ldi	r23, 0x05	; 5
    3334:	0c c0       	rjmp	.+24     	; 0x334e <_ZN5Print10printFloatEdh+0x88>
    3336:	2f ef       	ldi	r18, 0xFF	; 255
    3338:	3f ef       	ldi	r19, 0xFF	; 255
    333a:	4f e7       	ldi	r20, 0x7F	; 127
    333c:	5f e4       	ldi	r21, 0x4F	; 79
    333e:	c7 01       	movw	r24, r14
    3340:	b6 01       	movw	r22, r12
    3342:	0e 94 2a 1f 	call	0x3e54	; 0x3e54 <__gesf2>
    3346:	18 16       	cp	r1, r24
    3348:	9c f4       	brge	.+38     	; 0x3370 <_ZN5Print10printFloatEdh+0xaa>
    334a:	6c e6       	ldi	r22, 0x6C	; 108
    334c:	75 e0       	ldi	r23, 0x05	; 5
    334e:	ce 01       	movw	r24, r28
    3350:	df 91       	pop	r29
    3352:	cf 91       	pop	r28
    3354:	ff 90       	pop	r15
    3356:	ef 90       	pop	r14
    3358:	df 90       	pop	r13
    335a:	cf 90       	pop	r12
    335c:	bf 90       	pop	r11
    335e:	af 90       	pop	r10
    3360:	9f 90       	pop	r9
    3362:	8f 90       	pop	r8
    3364:	7f 90       	pop	r7
    3366:	6f 90       	pop	r6
    3368:	5f 90       	pop	r5
    336a:	4f 90       	pop	r4
    336c:	0c 94 8f 18 	jmp	0x311e	; 0x311e <_ZN5Print5writeEPKc>
    3370:	2f ef       	ldi	r18, 0xFF	; 255
    3372:	3f ef       	ldi	r19, 0xFF	; 255
    3374:	4f e7       	ldi	r20, 0x7F	; 127
    3376:	5f ec       	ldi	r21, 0xCF	; 207
    3378:	c7 01       	movw	r24, r14
    337a:	b6 01       	movw	r22, r12
    337c:	0e 94 cb 1d 	call	0x3b96	; 0x3b96 <__cmpsf2>
    3380:	87 fd       	sbrc	r24, 7
    3382:	e3 cf       	rjmp	.-58     	; 0x334a <_ZN5Print10printFloatEdh+0x84>
    3384:	20 e0       	ldi	r18, 0x00	; 0
    3386:	30 e0       	ldi	r19, 0x00	; 0
    3388:	a9 01       	movw	r20, r18
    338a:	c7 01       	movw	r24, r14
    338c:	b6 01       	movw	r22, r12
    338e:	0e 94 cb 1d 	call	0x3b96	; 0x3b96 <__cmpsf2>
    3392:	87 ff       	sbrs	r24, 7
    3394:	0a c0       	rjmp	.+20     	; 0x33aa <_ZN5Print10printFloatEdh+0xe4>
    3396:	6d e2       	ldi	r22, 0x2D	; 45
    3398:	ce 01       	movw	r24, r28
    339a:	0e 94 a6 18 	call	0x314c	; 0x314c <_ZN5Print5printEc>
    339e:	4c 01       	movw	r8, r24
    33a0:	f7 fa       	bst	r15, 7
    33a2:	f0 94       	com	r15
    33a4:	f7 f8       	bld	r15, 7
    33a6:	f0 94       	com	r15
    33a8:	02 c0       	rjmp	.+4      	; 0x33ae <_ZN5Print10printFloatEdh+0xe8>
    33aa:	81 2c       	mov	r8, r1
    33ac:	91 2c       	mov	r9, r1
    33ae:	a1 2c       	mov	r10, r1
    33b0:	60 e0       	ldi	r22, 0x00	; 0
    33b2:	70 e0       	ldi	r23, 0x00	; 0
    33b4:	80 e0       	ldi	r24, 0x00	; 0
    33b6:	9f e3       	ldi	r25, 0x3F	; 63
    33b8:	ab 14       	cp	r10, r11
    33ba:	41 f0       	breq	.+16     	; 0x33cc <_ZN5Print10printFloatEdh+0x106>
    33bc:	20 e0       	ldi	r18, 0x00	; 0
    33be:	30 e0       	ldi	r19, 0x00	; 0
    33c0:	40 e2       	ldi	r20, 0x20	; 32
    33c2:	51 e4       	ldi	r21, 0x41	; 65
    33c4:	0e 94 d0 1d 	call	0x3ba0	; 0x3ba0 <__divsf3>
    33c8:	a3 94       	inc	r10
    33ca:	f6 cf       	rjmp	.-20     	; 0x33b8 <_ZN5Print10printFloatEdh+0xf2>
    33cc:	9b 01       	movw	r18, r22
    33ce:	ac 01       	movw	r20, r24
    33d0:	c7 01       	movw	r24, r14
    33d2:	b6 01       	movw	r22, r12
    33d4:	0e 94 5f 1d 	call	0x3abe	; 0x3abe <__addsf3>
    33d8:	2b 01       	movw	r4, r22
    33da:	3c 01       	movw	r6, r24
    33dc:	0e 94 49 1e 	call	0x3c92	; 0x3c92 <__fixunssfsi>
    33e0:	6b 01       	movw	r12, r22
    33e2:	7c 01       	movw	r14, r24
    33e4:	0e 94 78 1e 	call	0x3cf0	; 0x3cf0 <__floatunsisf>
    33e8:	9b 01       	movw	r18, r22
    33ea:	ac 01       	movw	r20, r24
    33ec:	c3 01       	movw	r24, r6
    33ee:	b2 01       	movw	r22, r4
    33f0:	0e 94 5e 1d 	call	0x3abc	; 0x3abc <__subsf3>
    33f4:	2b 01       	movw	r4, r22
    33f6:	3c 01       	movw	r6, r24
    33f8:	2a e0       	ldi	r18, 0x0A	; 10
    33fa:	b7 01       	movw	r22, r14
    33fc:	a6 01       	movw	r20, r12
    33fe:	ce 01       	movw	r24, r28
    3400:	0e 94 c3 18 	call	0x3186	; 0x3186 <_ZN5Print11printNumberEmh>
    3404:	7c 01       	movw	r14, r24
    3406:	e8 0c       	add	r14, r8
    3408:	f9 1c       	adc	r15, r9
    340a:	bb 20       	and	r11, r11
    340c:	39 f0       	breq	.+14     	; 0x341c <_ZN5Print10printFloatEdh+0x156>
    340e:	6e e9       	ldi	r22, 0x9E	; 158
    3410:	74 e0       	ldi	r23, 0x04	; 4
    3412:	ce 01       	movw	r24, r28
    3414:	0e 94 8f 18 	call	0x311e	; 0x311e <_ZN5Print5writeEPKc>
    3418:	e8 0e       	add	r14, r24
    341a:	f9 1e       	adc	r15, r25
    341c:	db 2c       	mov	r13, r11
    341e:	dd 20       	and	r13, r13
    3420:	39 f1       	breq	.+78     	; 0x3470 <_ZN5Print10printFloatEdh+0x1aa>
    3422:	20 e0       	ldi	r18, 0x00	; 0
    3424:	30 e0       	ldi	r19, 0x00	; 0
    3426:	40 e2       	ldi	r20, 0x20	; 32
    3428:	51 e4       	ldi	r21, 0x41	; 65
    342a:	c3 01       	movw	r24, r6
    342c:	b2 01       	movw	r22, r4
    342e:	0e 94 2f 1f 	call	0x3e5e	; 0x3e5e <__mulsf3>
    3432:	2b 01       	movw	r4, r22
    3434:	3c 01       	movw	r6, r24
    3436:	0e 94 42 1e 	call	0x3c84	; 0x3c84 <__fixsfsi>
    343a:	4b 01       	movw	r8, r22
    343c:	77 0f       	add	r23, r23
    343e:	aa 08       	sbc	r10, r10
    3440:	bb 08       	sbc	r11, r11
    3442:	2a e0       	ldi	r18, 0x0A	; 10
    3444:	30 e0       	ldi	r19, 0x00	; 0
    3446:	b5 01       	movw	r22, r10
    3448:	a4 01       	movw	r20, r8
    344a:	ce 01       	movw	r24, r28
    344c:	0e 94 19 19 	call	0x3232	; 0x3232 <_ZN5Print5printEli>
    3450:	e8 0e       	add	r14, r24
    3452:	f9 1e       	adc	r15, r25
    3454:	c5 01       	movw	r24, r10
    3456:	b4 01       	movw	r22, r8
    3458:	0e 94 7a 1e 	call	0x3cf4	; 0x3cf4 <__floatsisf>
    345c:	9b 01       	movw	r18, r22
    345e:	ac 01       	movw	r20, r24
    3460:	c3 01       	movw	r24, r6
    3462:	b2 01       	movw	r22, r4
    3464:	0e 94 5e 1d 	call	0x3abc	; 0x3abc <__subsf3>
    3468:	2b 01       	movw	r4, r22
    346a:	3c 01       	movw	r6, r24
    346c:	da 94       	dec	r13
    346e:	d7 cf       	rjmp	.-82     	; 0x341e <_ZN5Print10printFloatEdh+0x158>
    3470:	c7 01       	movw	r24, r14
    3472:	df 91       	pop	r29
    3474:	cf 91       	pop	r28
    3476:	ff 90       	pop	r15
    3478:	ef 90       	pop	r14
    347a:	df 90       	pop	r13
    347c:	cf 90       	pop	r12
    347e:	bf 90       	pop	r11
    3480:	af 90       	pop	r10
    3482:	9f 90       	pop	r9
    3484:	8f 90       	pop	r8
    3486:	7f 90       	pop	r7
    3488:	6f 90       	pop	r6
    348a:	5f 90       	pop	r5
    348c:	4f 90       	pop	r4
    348e:	08 95       	ret

00003490 <_ZN5Print5printEdi>:
    3490:	0c 94 63 19 	jmp	0x32c6	; 0x32c6 <_ZN5Print10printFloatEdh>

00003494 <_ZN6Stream9timedReadEv>:
    3494:	0f 93       	push	r16
    3496:	1f 93       	push	r17
    3498:	cf 93       	push	r28
    349a:	df 93       	push	r29
    349c:	ec 01       	movw	r28, r24
    349e:	0e 94 e6 1b 	call	0x37cc	; 0x37cc <millis>
    34a2:	68 87       	std	Y+8, r22	; 0x08
    34a4:	79 87       	std	Y+9, r23	; 0x09
    34a6:	8a 87       	std	Y+10, r24	; 0x0a
    34a8:	9b 87       	std	Y+11, r25	; 0x0b
    34aa:	e8 81       	ld	r30, Y
    34ac:	f9 81       	ldd	r31, Y+1	; 0x01
    34ae:	06 80       	ldd	r0, Z+6	; 0x06
    34b0:	f7 81       	ldd	r31, Z+7	; 0x07
    34b2:	e0 2d       	mov	r30, r0
    34b4:	ce 01       	movw	r24, r28
    34b6:	09 95       	icall
    34b8:	97 ff       	sbrs	r25, 7
    34ba:	17 c0       	rjmp	.+46     	; 0x34ea <_ZN6Stream9timedReadEv+0x56>
    34bc:	0e 94 e6 1b 	call	0x37cc	; 0x37cc <millis>
    34c0:	08 85       	ldd	r16, Y+8	; 0x08
    34c2:	19 85       	ldd	r17, Y+9	; 0x09
    34c4:	2a 85       	ldd	r18, Y+10	; 0x0a
    34c6:	3b 85       	ldd	r19, Y+11	; 0x0b
    34c8:	dc 01       	movw	r26, r24
    34ca:	cb 01       	movw	r24, r22
    34cc:	80 1b       	sub	r24, r16
    34ce:	91 0b       	sbc	r25, r17
    34d0:	a2 0b       	sbc	r26, r18
    34d2:	b3 0b       	sbc	r27, r19
    34d4:	0c 81       	ldd	r16, Y+4	; 0x04
    34d6:	1d 81       	ldd	r17, Y+5	; 0x05
    34d8:	2e 81       	ldd	r18, Y+6	; 0x06
    34da:	3f 81       	ldd	r19, Y+7	; 0x07
    34dc:	80 17       	cp	r24, r16
    34de:	91 07       	cpc	r25, r17
    34e0:	a2 07       	cpc	r26, r18
    34e2:	b3 07       	cpc	r27, r19
    34e4:	10 f3       	brcs	.-60     	; 0x34aa <_ZN6Stream9timedReadEv+0x16>
    34e6:	8f ef       	ldi	r24, 0xFF	; 255
    34e8:	9f ef       	ldi	r25, 0xFF	; 255
    34ea:	df 91       	pop	r29
    34ec:	cf 91       	pop	r28
    34ee:	1f 91       	pop	r17
    34f0:	0f 91       	pop	r16
    34f2:	08 95       	ret

000034f4 <_ZN6Stream9findMultiEPNS_11MultiTargetEi>:
    34f4:	4f 92       	push	r4
    34f6:	5f 92       	push	r5
    34f8:	6f 92       	push	r6
    34fa:	7f 92       	push	r7
    34fc:	8f 92       	push	r8
    34fe:	9f 92       	push	r9
    3500:	af 92       	push	r10
    3502:	bf 92       	push	r11
    3504:	cf 92       	push	r12
    3506:	df 92       	push	r13
    3508:	ef 92       	push	r14
    350a:	ff 92       	push	r15
    350c:	0f 93       	push	r16
    350e:	1f 93       	push	r17
    3510:	cf 93       	push	r28
    3512:	df 93       	push	r29
    3514:	8c 01       	movw	r16, r24
    3516:	eb 01       	movw	r28, r22
    3518:	86 e0       	ldi	r24, 0x06	; 6
    351a:	84 9f       	mul	r24, r20
    351c:	40 01       	movw	r8, r0
    351e:	85 9f       	mul	r24, r21
    3520:	90 0c       	add	r9, r0
    3522:	11 24       	eor	r1, r1
    3524:	86 0e       	add	r8, r22
    3526:	97 1e       	adc	r9, r23
    3528:	fb 01       	movw	r30, r22
    352a:	e8 15       	cp	r30, r8
    352c:	f9 05       	cpc	r31, r9
    352e:	f8 f4       	brcc	.+62     	; 0x356e <_ZN6Stream9findMultiEPNS_11MultiTargetEi+0x7a>
    3530:	82 81       	ldd	r24, Z+2	; 0x02
    3532:	93 81       	ldd	r25, Z+3	; 0x03
    3534:	89 2b       	or	r24, r25
    3536:	11 f1       	breq	.+68     	; 0x357c <_ZN6Stream9findMultiEPNS_11MultiTargetEi+0x88>
    3538:	36 96       	adiw	r30, 0x06	; 6
    353a:	f7 cf       	rjmp	.-18     	; 0x352a <_ZN6Stream9findMultiEPNS_11MultiTargetEi+0x36>
    353c:	60 81       	ld	r22, Z
    353e:	71 81       	ldd	r23, Z+1	; 0x01
    3540:	44 81       	ldd	r20, Z+4	; 0x04
    3542:	55 81       	ldd	r21, Z+5	; 0x05
    3544:	db 01       	movw	r26, r22
    3546:	a4 0f       	add	r26, r20
    3548:	b5 1f       	adc	r27, r21
    354a:	2c 91       	ld	r18, X
    354c:	30 e0       	ldi	r19, 0x00	; 0
    354e:	82 17       	cp	r24, r18
    3550:	93 07       	cpc	r25, r19
    3552:	11 f5       	brne	.+68     	; 0x3598 <_ZN6Stream9findMultiEPNS_11MultiTargetEi+0xa4>
    3554:	4f 5f       	subi	r20, 0xFF	; 255
    3556:	5f 4f       	sbci	r21, 0xFF	; 255
    3558:	55 83       	std	Z+5, r21	; 0x05
    355a:	44 83       	std	Z+4, r20	; 0x04
    355c:	22 81       	ldd	r18, Z+2	; 0x02
    355e:	33 81       	ldd	r19, Z+3	; 0x03
    3560:	42 17       	cp	r20, r18
    3562:	53 07       	cpc	r21, r19
    3564:	59 f0       	breq	.+22     	; 0x357c <_ZN6Stream9findMultiEPNS_11MultiTargetEi+0x88>
    3566:	36 96       	adiw	r30, 0x06	; 6
    3568:	e8 15       	cp	r30, r8
    356a:	f9 05       	cpc	r31, r9
    356c:	38 f3       	brcs	.-50     	; 0x353c <_ZN6Stream9findMultiEPNS_11MultiTargetEi+0x48>
    356e:	c8 01       	movw	r24, r16
    3570:	0e 94 4a 1a 	call	0x3494	; 0x3494 <_ZN6Stream9timedReadEv>
    3574:	97 fd       	sbrc	r25, 7
    3576:	44 c0       	rjmp	.+136    	; 0x3600 <_ZN6Stream9findMultiEPNS_11MultiTargetEi+0x10c>
    3578:	fe 01       	movw	r30, r28
    357a:	f6 cf       	rjmp	.-20     	; 0x3568 <_ZN6Stream9findMultiEPNS_11MultiTargetEi+0x74>
    357c:	ec 1b       	sub	r30, r28
    357e:	fd 0b       	sbc	r31, r29
    3580:	f5 95       	asr	r31
    3582:	e7 95       	ror	r30
    3584:	2b ea       	ldi	r18, 0xAB	; 171
    3586:	3a ea       	ldi	r19, 0xAA	; 170
    3588:	e2 9f       	mul	r30, r18
    358a:	c0 01       	movw	r24, r0
    358c:	e3 9f       	mul	r30, r19
    358e:	90 0d       	add	r25, r0
    3590:	f2 9f       	mul	r31, r18
    3592:	90 0d       	add	r25, r0
    3594:	11 24       	eor	r1, r1
    3596:	36 c0       	rjmp	.+108    	; 0x3604 <_ZN6Stream9findMultiEPNS_11MultiTargetEi+0x110>
    3598:	41 15       	cp	r20, r1
    359a:	51 05       	cpc	r21, r1
    359c:	21 f3       	breq	.-56     	; 0x3566 <_ZN6Stream9findMultiEPNS_11MultiTargetEi+0x72>
    359e:	c4 80       	ldd	r12, Z+4	; 0x04
    35a0:	d5 80       	ldd	r13, Z+5	; 0x05
    35a2:	96 01       	movw	r18, r12
    35a4:	21 50       	subi	r18, 0x01	; 1
    35a6:	31 09       	sbc	r19, r1
    35a8:	35 83       	std	Z+5, r19	; 0x05
    35aa:	24 83       	std	Z+4, r18	; 0x04
    35ac:	db 01       	movw	r26, r22
    35ae:	a2 0f       	add	r26, r18
    35b0:	b3 1f       	adc	r27, r19
    35b2:	ac 91       	ld	r26, X
    35b4:	b0 e0       	ldi	r27, 0x00	; 0
    35b6:	8a 17       	cp	r24, r26
    35b8:	9b 07       	cpc	r25, r27
    35ba:	f9 f4       	brne	.+62     	; 0x35fa <_ZN6Stream9findMultiEPNS_11MultiTargetEi+0x106>
    35bc:	21 15       	cp	r18, r1
    35be:	31 05       	cpc	r19, r1
    35c0:	c9 f0       	breq	.+50     	; 0x35f4 <_ZN6Stream9findMultiEPNS_11MultiTargetEi+0x100>
    35c2:	5b 01       	movw	r10, r22
    35c4:	7a 01       	movw	r14, r20
    35c6:	e2 1a       	sub	r14, r18
    35c8:	f3 0a       	sbc	r15, r19
    35ca:	e6 0e       	add	r14, r22
    35cc:	f7 1e       	adc	r15, r23
    35ce:	41 2c       	mov	r4, r1
    35d0:	51 2c       	mov	r5, r1
    35d2:	d5 01       	movw	r26, r10
    35d4:	6d 90       	ld	r6, X+
    35d6:	5d 01       	movw	r10, r26
    35d8:	d7 01       	movw	r26, r14
    35da:	7d 90       	ld	r7, X+
    35dc:	7d 01       	movw	r14, r26
    35de:	67 10       	cpse	r6, r7
    35e0:	06 c0       	rjmp	.+12     	; 0x35ee <_ZN6Stream9findMultiEPNS_11MultiTargetEi+0xfa>
    35e2:	bf ef       	ldi	r27, 0xFF	; 255
    35e4:	4b 1a       	sub	r4, r27
    35e6:	5b 0a       	sbc	r5, r27
    35e8:	42 16       	cp	r4, r18
    35ea:	53 06       	cpc	r5, r19
    35ec:	90 f3       	brcs	.-28     	; 0x35d2 <_ZN6Stream9findMultiEPNS_11MultiTargetEi+0xde>
    35ee:	42 16       	cp	r4, r18
    35f0:	53 06       	cpc	r5, r19
    35f2:	a9 f6       	brne	.-86     	; 0x359e <_ZN6Stream9findMultiEPNS_11MultiTargetEi+0xaa>
    35f4:	d5 82       	std	Z+5, r13	; 0x05
    35f6:	c4 82       	std	Z+4, r12	; 0x04
    35f8:	b6 cf       	rjmp	.-148    	; 0x3566 <_ZN6Stream9findMultiEPNS_11MultiTargetEi+0x72>
    35fa:	23 2b       	or	r18, r19
    35fc:	81 f6       	brne	.-96     	; 0x359e <_ZN6Stream9findMultiEPNS_11MultiTargetEi+0xaa>
    35fe:	b3 cf       	rjmp	.-154    	; 0x3566 <_ZN6Stream9findMultiEPNS_11MultiTargetEi+0x72>
    3600:	8f ef       	ldi	r24, 0xFF	; 255
    3602:	9f ef       	ldi	r25, 0xFF	; 255
    3604:	df 91       	pop	r29
    3606:	cf 91       	pop	r28
    3608:	1f 91       	pop	r17
    360a:	0f 91       	pop	r16
    360c:	ff 90       	pop	r15
    360e:	ef 90       	pop	r14
    3610:	df 90       	pop	r13
    3612:	cf 90       	pop	r12
    3614:	bf 90       	pop	r11
    3616:	af 90       	pop	r10
    3618:	9f 90       	pop	r9
    361a:	8f 90       	pop	r8
    361c:	7f 90       	pop	r7
    361e:	6f 90       	pop	r6
    3620:	5f 90       	pop	r5
    3622:	4f 90       	pop	r4
    3624:	08 95       	ret

00003626 <_ZN6Stream9findUntilEPcjS0_j.part.0>:
    3626:	cf 93       	push	r28
    3628:	df 93       	push	r29
    362a:	00 d0       	rcall	.+0      	; 0x362c <_ZN6Stream9findUntilEPcjS0_j.part.0+0x6>
    362c:	00 d0       	rcall	.+0      	; 0x362e <_ZN6Stream9findUntilEPcjS0_j.part.0+0x8>
    362e:	00 d0       	rcall	.+0      	; 0x3630 <_ZN6Stream9findUntilEPcjS0_j.part.0+0xa>
    3630:	cd b7       	in	r28, 0x3d	; 61
    3632:	de b7       	in	r29, 0x3e	; 62
    3634:	fe 01       	movw	r30, r28
    3636:	31 96       	adiw	r30, 0x01	; 1
    3638:	26 e0       	ldi	r18, 0x06	; 6
    363a:	df 01       	movw	r26, r30
    363c:	1d 92       	st	X+, r1
    363e:	2a 95       	dec	r18
    3640:	e9 f7       	brne	.-6      	; 0x363c <_ZN6Stream9findUntilEPcjS0_j.part.0+0x16>
    3642:	7a 83       	std	Y+2, r23	; 0x02
    3644:	69 83       	std	Y+1, r22	; 0x01
    3646:	5c 83       	std	Y+4, r21	; 0x04
    3648:	4b 83       	std	Y+3, r20	; 0x03
    364a:	41 e0       	ldi	r20, 0x01	; 1
    364c:	50 e0       	ldi	r21, 0x00	; 0
    364e:	bf 01       	movw	r22, r30
    3650:	0e 94 7a 1a 	call	0x34f4	; 0x34f4 <_ZN6Stream9findMultiEPNS_11MultiTargetEi>
    3654:	21 e0       	ldi	r18, 0x01	; 1
    3656:	89 2b       	or	r24, r25
    3658:	09 f0       	breq	.+2      	; 0x365c <_ZN6Stream9findUntilEPcjS0_j.part.0+0x36>
    365a:	20 e0       	ldi	r18, 0x00	; 0
    365c:	82 2f       	mov	r24, r18
    365e:	26 96       	adiw	r28, 0x06	; 6
    3660:	0f b6       	in	r0, 0x3f	; 63
    3662:	f8 94       	cli
    3664:	de bf       	out	0x3e, r29	; 62
    3666:	0f be       	out	0x3f, r0	; 63
    3668:	cd bf       	out	0x3d, r28	; 61
    366a:	df 91       	pop	r29
    366c:	cf 91       	pop	r28
    366e:	08 95       	ret

00003670 <_ZN6Stream4findEPc>:
    3670:	fb 01       	movw	r30, r22
    3672:	01 90       	ld	r0, Z+
    3674:	00 20       	and	r0, r0
    3676:	e9 f7       	brne	.-6      	; 0x3672 <_ZN6Stream4findEPc+0x2>
    3678:	31 97       	sbiw	r30, 0x01	; 1
    367a:	af 01       	movw	r20, r30
    367c:	46 1b       	sub	r20, r22
    367e:	57 0b       	sbc	r21, r23
    3680:	0c 94 13 1b 	jmp	0x3626	; 0x3626 <_ZN6Stream9findUntilEPcjS0_j.part.0>

00003684 <__vector_1>:
    3684:	1f 92       	push	r1
    3686:	0f 92       	push	r0
    3688:	0f b6       	in	r0, 0x3f	; 63
    368a:	0f 92       	push	r0
    368c:	11 24       	eor	r1, r1
    368e:	2f 93       	push	r18
    3690:	3f 93       	push	r19
    3692:	4f 93       	push	r20
    3694:	5f 93       	push	r21
    3696:	6f 93       	push	r22
    3698:	7f 93       	push	r23
    369a:	8f 93       	push	r24
    369c:	9f 93       	push	r25
    369e:	af 93       	push	r26
    36a0:	bf 93       	push	r27
    36a2:	ef 93       	push	r30
    36a4:	ff 93       	push	r31
    36a6:	80 91 59 08 	lds	r24, 0x0859
    36aa:	90 91 5a 08 	lds	r25, 0x085A
    36ae:	89 2b       	or	r24, r25
    36b0:	29 f0       	breq	.+10     	; 0x36bc <__vector_1+0x38>
    36b2:	e0 91 59 08 	lds	r30, 0x0859
    36b6:	f0 91 5a 08 	lds	r31, 0x085A
    36ba:	09 95       	icall
    36bc:	ff 91       	pop	r31
    36be:	ef 91       	pop	r30
    36c0:	bf 91       	pop	r27
    36c2:	af 91       	pop	r26
    36c4:	9f 91       	pop	r25
    36c6:	8f 91       	pop	r24
    36c8:	7f 91       	pop	r23
    36ca:	6f 91       	pop	r22
    36cc:	5f 91       	pop	r21
    36ce:	4f 91       	pop	r20
    36d0:	3f 91       	pop	r19
    36d2:	2f 91       	pop	r18
    36d4:	0f 90       	pop	r0
    36d6:	0f be       	out	0x3f, r0	; 63
    36d8:	0f 90       	pop	r0
    36da:	1f 90       	pop	r1
    36dc:	18 95       	reti

000036de <__vector_2>:
    36de:	1f 92       	push	r1
    36e0:	0f 92       	push	r0
    36e2:	0f b6       	in	r0, 0x3f	; 63
    36e4:	0f 92       	push	r0
    36e6:	11 24       	eor	r1, r1
    36e8:	2f 93       	push	r18
    36ea:	3f 93       	push	r19
    36ec:	4f 93       	push	r20
    36ee:	5f 93       	push	r21
    36f0:	6f 93       	push	r22
    36f2:	7f 93       	push	r23
    36f4:	8f 93       	push	r24
    36f6:	9f 93       	push	r25
    36f8:	af 93       	push	r26
    36fa:	bf 93       	push	r27
    36fc:	ef 93       	push	r30
    36fe:	ff 93       	push	r31
    3700:	80 91 5b 08 	lds	r24, 0x085B
    3704:	90 91 5c 08 	lds	r25, 0x085C
    3708:	89 2b       	or	r24, r25
    370a:	29 f0       	breq	.+10     	; 0x3716 <__vector_2+0x38>
    370c:	e0 91 5b 08 	lds	r30, 0x085B
    3710:	f0 91 5c 08 	lds	r31, 0x085C
    3714:	09 95       	icall
    3716:	ff 91       	pop	r31
    3718:	ef 91       	pop	r30
    371a:	bf 91       	pop	r27
    371c:	af 91       	pop	r26
    371e:	9f 91       	pop	r25
    3720:	8f 91       	pop	r24
    3722:	7f 91       	pop	r23
    3724:	6f 91       	pop	r22
    3726:	5f 91       	pop	r21
    3728:	4f 91       	pop	r20
    372a:	3f 91       	pop	r19
    372c:	2f 91       	pop	r18
    372e:	0f 90       	pop	r0
    3730:	0f be       	out	0x3f, r0	; 63
    3732:	0f 90       	pop	r0
    3734:	1f 90       	pop	r1
    3736:	18 95       	reti

00003738 <__vector_16>:
    3738:	1f 92       	push	r1
    373a:	0f 92       	push	r0
    373c:	0f b6       	in	r0, 0x3f	; 63
    373e:	0f 92       	push	r0
    3740:	11 24       	eor	r1, r1
    3742:	2f 93       	push	r18
    3744:	3f 93       	push	r19
    3746:	8f 93       	push	r24
    3748:	9f 93       	push	r25
    374a:	af 93       	push	r26
    374c:	bf 93       	push	r27
    374e:	80 91 5e 08 	lds	r24, 0x085E
    3752:	90 91 5f 08 	lds	r25, 0x085F
    3756:	a0 91 60 08 	lds	r26, 0x0860
    375a:	b0 91 61 08 	lds	r27, 0x0861
    375e:	30 91 5d 08 	lds	r19, 0x085D
    3762:	26 e0       	ldi	r18, 0x06	; 6
    3764:	23 0f       	add	r18, r19
    3766:	2d 37       	cpi	r18, 0x7D	; 125
    3768:	20 f4       	brcc	.+8      	; 0x3772 <__vector_16+0x3a>
    376a:	02 96       	adiw	r24, 0x02	; 2
    376c:	a1 1d       	adc	r26, r1
    376e:	b1 1d       	adc	r27, r1
    3770:	05 c0       	rjmp	.+10     	; 0x377c <__vector_16+0x44>
    3772:	29 e8       	ldi	r18, 0x89	; 137
    3774:	23 0f       	add	r18, r19
    3776:	03 96       	adiw	r24, 0x03	; 3
    3778:	a1 1d       	adc	r26, r1
    377a:	b1 1d       	adc	r27, r1
    377c:	20 93 5d 08 	sts	0x085D, r18
    3780:	80 93 5e 08 	sts	0x085E, r24
    3784:	90 93 5f 08 	sts	0x085F, r25
    3788:	a0 93 60 08 	sts	0x0860, r26
    378c:	b0 93 61 08 	sts	0x0861, r27
    3790:	80 91 62 08 	lds	r24, 0x0862
    3794:	90 91 63 08 	lds	r25, 0x0863
    3798:	a0 91 64 08 	lds	r26, 0x0864
    379c:	b0 91 65 08 	lds	r27, 0x0865
    37a0:	01 96       	adiw	r24, 0x01	; 1
    37a2:	a1 1d       	adc	r26, r1
    37a4:	b1 1d       	adc	r27, r1
    37a6:	80 93 62 08 	sts	0x0862, r24
    37aa:	90 93 63 08 	sts	0x0863, r25
    37ae:	a0 93 64 08 	sts	0x0864, r26
    37b2:	b0 93 65 08 	sts	0x0865, r27
    37b6:	bf 91       	pop	r27
    37b8:	af 91       	pop	r26
    37ba:	9f 91       	pop	r25
    37bc:	8f 91       	pop	r24
    37be:	3f 91       	pop	r19
    37c0:	2f 91       	pop	r18
    37c2:	0f 90       	pop	r0
    37c4:	0f be       	out	0x3f, r0	; 63
    37c6:	0f 90       	pop	r0
    37c8:	1f 90       	pop	r1
    37ca:	18 95       	reti

000037cc <millis>:
    37cc:	2f b7       	in	r18, 0x3f	; 63
    37ce:	f8 94       	cli
    37d0:	60 91 5e 08 	lds	r22, 0x085E
    37d4:	70 91 5f 08 	lds	r23, 0x085F
    37d8:	80 91 60 08 	lds	r24, 0x0860
    37dc:	90 91 61 08 	lds	r25, 0x0861
    37e0:	2f bf       	out	0x3f, r18	; 63
    37e2:	08 95       	ret

000037e4 <micros>:
    37e4:	3f b7       	in	r19, 0x3f	; 63
    37e6:	f8 94       	cli
    37e8:	80 91 62 08 	lds	r24, 0x0862
    37ec:	90 91 63 08 	lds	r25, 0x0863
    37f0:	a0 91 64 08 	lds	r26, 0x0864
    37f4:	b0 91 65 08 	lds	r27, 0x0865
    37f8:	26 b5       	in	r18, 0x26	; 38
    37fa:	a8 9b       	sbis	0x15, 0	; 21
    37fc:	05 c0       	rjmp	.+10     	; 0x3808 <micros+0x24>
    37fe:	2f 3f       	cpi	r18, 0xFF	; 255
    3800:	19 f0       	breq	.+6      	; 0x3808 <micros+0x24>
    3802:	01 96       	adiw	r24, 0x01	; 1
    3804:	a1 1d       	adc	r26, r1
    3806:	b1 1d       	adc	r27, r1
    3808:	3f bf       	out	0x3f, r19	; 63
    380a:	ba 2f       	mov	r27, r26
    380c:	a9 2f       	mov	r26, r25
    380e:	98 2f       	mov	r25, r24
    3810:	88 27       	eor	r24, r24
    3812:	82 0f       	add	r24, r18
    3814:	91 1d       	adc	r25, r1
    3816:	a1 1d       	adc	r26, r1
    3818:	b1 1d       	adc	r27, r1
    381a:	bc 01       	movw	r22, r24
    381c:	cd 01       	movw	r24, r26
    381e:	43 e0       	ldi	r20, 0x03	; 3
    3820:	66 0f       	add	r22, r22
    3822:	77 1f       	adc	r23, r23
    3824:	88 1f       	adc	r24, r24
    3826:	99 1f       	adc	r25, r25
    3828:	4a 95       	dec	r20
    382a:	d1 f7       	brne	.-12     	; 0x3820 <micros+0x3c>
    382c:	08 95       	ret

0000382e <delay>:
    382e:	cf 92       	push	r12
    3830:	df 92       	push	r13
    3832:	ef 92       	push	r14
    3834:	ff 92       	push	r15
    3836:	cf 93       	push	r28
    3838:	df 93       	push	r29
    383a:	6b 01       	movw	r12, r22
    383c:	7c 01       	movw	r14, r24
    383e:	0e 94 f2 1b 	call	0x37e4	; 0x37e4 <micros>
    3842:	eb 01       	movw	r28, r22
    3844:	c1 14       	cp	r12, r1
    3846:	d1 04       	cpc	r13, r1
    3848:	e1 04       	cpc	r14, r1
    384a:	f1 04       	cpc	r15, r1
    384c:	89 f0       	breq	.+34     	; 0x3870 <delay+0x42>
    384e:	0e 94 56 18 	call	0x30ac	; 0x30ac <yield>
    3852:	0e 94 f2 1b 	call	0x37e4	; 0x37e4 <micros>
    3856:	6c 1b       	sub	r22, r28
    3858:	7d 0b       	sbc	r23, r29
    385a:	68 3e       	cpi	r22, 0xE8	; 232
    385c:	73 40       	sbci	r23, 0x03	; 3
    385e:	90 f3       	brcs	.-28     	; 0x3844 <delay+0x16>
    3860:	81 e0       	ldi	r24, 0x01	; 1
    3862:	c8 1a       	sub	r12, r24
    3864:	d1 08       	sbc	r13, r1
    3866:	e1 08       	sbc	r14, r1
    3868:	f1 08       	sbc	r15, r1
    386a:	c8 51       	subi	r28, 0x18	; 24
    386c:	dc 4f       	sbci	r29, 0xFC	; 252
    386e:	ea cf       	rjmp	.-44     	; 0x3844 <delay+0x16>
    3870:	df 91       	pop	r29
    3872:	cf 91       	pop	r28
    3874:	ff 90       	pop	r15
    3876:	ef 90       	pop	r14
    3878:	df 90       	pop	r13
    387a:	cf 90       	pop	r12
    387c:	08 95       	ret

0000387e <delayMicroseconds>:
    387e:	83 30       	cpi	r24, 0x03	; 3
    3880:	91 05       	cpc	r25, r1
    3882:	28 f0       	brcs	.+10     	; 0x388e <delayMicroseconds+0x10>
    3884:	88 0f       	add	r24, r24
    3886:	99 1f       	adc	r25, r25
    3888:	04 97       	sbiw	r24, 0x04	; 4
    388a:	01 97       	sbiw	r24, 0x01	; 1
    388c:	f1 f7       	brne	.-4      	; 0x388a <delayMicroseconds+0xc>
    388e:	08 95       	ret

00003890 <init>:
    3890:	78 94       	sei
    3892:	84 b5       	in	r24, 0x24	; 36
    3894:	82 60       	ori	r24, 0x02	; 2
    3896:	84 bd       	out	0x24, r24	; 36
    3898:	84 b5       	in	r24, 0x24	; 36
    389a:	81 60       	ori	r24, 0x01	; 1
    389c:	84 bd       	out	0x24, r24	; 36
    389e:	85 b5       	in	r24, 0x25	; 37
    38a0:	82 60       	ori	r24, 0x02	; 2
    38a2:	85 bd       	out	0x25, r24	; 37
    38a4:	85 b5       	in	r24, 0x25	; 37
    38a6:	81 60       	ori	r24, 0x01	; 1
    38a8:	85 bd       	out	0x25, r24	; 37
    38aa:	ee e6       	ldi	r30, 0x6E	; 110
    38ac:	f0 e0       	ldi	r31, 0x00	; 0
    38ae:	80 81       	ld	r24, Z
    38b0:	81 60       	ori	r24, 0x01	; 1
    38b2:	80 83       	st	Z, r24
    38b4:	e1 e8       	ldi	r30, 0x81	; 129
    38b6:	f0 e0       	ldi	r31, 0x00	; 0
    38b8:	10 82       	st	Z, r1
    38ba:	80 81       	ld	r24, Z
    38bc:	82 60       	ori	r24, 0x02	; 2
    38be:	80 83       	st	Z, r24
    38c0:	80 81       	ld	r24, Z
    38c2:	81 60       	ori	r24, 0x01	; 1
    38c4:	80 83       	st	Z, r24
    38c6:	e0 e8       	ldi	r30, 0x80	; 128
    38c8:	f0 e0       	ldi	r31, 0x00	; 0
    38ca:	80 81       	ld	r24, Z
    38cc:	81 60       	ori	r24, 0x01	; 1
    38ce:	80 83       	st	Z, r24
    38d0:	e1 eb       	ldi	r30, 0xB1	; 177
    38d2:	f0 e0       	ldi	r31, 0x00	; 0
    38d4:	80 81       	ld	r24, Z
    38d6:	84 60       	ori	r24, 0x04	; 4
    38d8:	80 83       	st	Z, r24
    38da:	e0 eb       	ldi	r30, 0xB0	; 176
    38dc:	f0 e0       	ldi	r31, 0x00	; 0
    38de:	80 81       	ld	r24, Z
    38e0:	81 60       	ori	r24, 0x01	; 1
    38e2:	80 83       	st	Z, r24
    38e4:	ea e7       	ldi	r30, 0x7A	; 122
    38e6:	f0 e0       	ldi	r31, 0x00	; 0
    38e8:	80 81       	ld	r24, Z
    38ea:	84 60       	ori	r24, 0x04	; 4
    38ec:	80 83       	st	Z, r24
    38ee:	80 81       	ld	r24, Z
    38f0:	82 60       	ori	r24, 0x02	; 2
    38f2:	80 83       	st	Z, r24
    38f4:	80 81       	ld	r24, Z
    38f6:	8e 7f       	andi	r24, 0xFE	; 254
    38f8:	80 83       	st	Z, r24
    38fa:	80 81       	ld	r24, Z
    38fc:	80 68       	ori	r24, 0x80	; 128
    38fe:	80 83       	st	Z, r24
    3900:	10 92 c1 00 	sts	0x00C1, r1
    3904:	08 95       	ret

00003906 <analogRead>:
    3906:	8e 30       	cpi	r24, 0x0E	; 14
    3908:	08 f0       	brcs	.+2      	; 0x390c <analogRead+0x6>
    390a:	8e 50       	subi	r24, 0x0E	; 14
    390c:	87 70       	andi	r24, 0x07	; 7
    390e:	20 91 02 04 	lds	r18, 0x0402
    3912:	90 e4       	ldi	r25, 0x40	; 64
    3914:	29 9f       	mul	r18, r25
    3916:	90 01       	movw	r18, r0
    3918:	11 24       	eor	r1, r1
    391a:	82 2b       	or	r24, r18
    391c:	80 93 7c 00 	sts	0x007C, r24
    3920:	80 91 7a 00 	lds	r24, 0x007A
    3924:	80 64       	ori	r24, 0x40	; 64
    3926:	80 93 7a 00 	sts	0x007A, r24
    392a:	80 91 7a 00 	lds	r24, 0x007A
    392e:	86 fd       	sbrc	r24, 6
    3930:	fc cf       	rjmp	.-8      	; 0x392a <analogRead+0x24>
    3932:	80 91 78 00 	lds	r24, 0x0078
    3936:	20 91 79 00 	lds	r18, 0x0079
    393a:	90 e0       	ldi	r25, 0x00	; 0
    393c:	92 2b       	or	r25, r18
    393e:	08 95       	ret

00003940 <turnOffPWM>:
    3940:	83 30       	cpi	r24, 0x03	; 3
    3942:	81 f0       	breq	.+32     	; 0x3964 <turnOffPWM+0x24>
    3944:	28 f4       	brcc	.+10     	; 0x3950 <turnOffPWM+0x10>
    3946:	81 30       	cpi	r24, 0x01	; 1
    3948:	99 f0       	breq	.+38     	; 0x3970 <turnOffPWM+0x30>
    394a:	82 30       	cpi	r24, 0x02	; 2
    394c:	a1 f0       	breq	.+40     	; 0x3976 <turnOffPWM+0x36>
    394e:	08 95       	ret
    3950:	87 30       	cpi	r24, 0x07	; 7
    3952:	a9 f0       	breq	.+42     	; 0x397e <turnOffPWM+0x3e>
    3954:	88 30       	cpi	r24, 0x08	; 8
    3956:	b9 f0       	breq	.+46     	; 0x3986 <turnOffPWM+0x46>
    3958:	84 30       	cpi	r24, 0x04	; 4
    395a:	d1 f4       	brne	.+52     	; 0x3990 <turnOffPWM+0x50>
    395c:	80 91 80 00 	lds	r24, 0x0080
    3960:	8f 7d       	andi	r24, 0xDF	; 223
    3962:	03 c0       	rjmp	.+6      	; 0x396a <turnOffPWM+0x2a>
    3964:	80 91 80 00 	lds	r24, 0x0080
    3968:	8f 77       	andi	r24, 0x7F	; 127
    396a:	80 93 80 00 	sts	0x0080, r24
    396e:	08 95       	ret
    3970:	84 b5       	in	r24, 0x24	; 36
    3972:	8f 77       	andi	r24, 0x7F	; 127
    3974:	02 c0       	rjmp	.+4      	; 0x397a <turnOffPWM+0x3a>
    3976:	84 b5       	in	r24, 0x24	; 36
    3978:	8f 7d       	andi	r24, 0xDF	; 223
    397a:	84 bd       	out	0x24, r24	; 36
    397c:	08 95       	ret
    397e:	80 91 b0 00 	lds	r24, 0x00B0
    3982:	8f 77       	andi	r24, 0x7F	; 127
    3984:	03 c0       	rjmp	.+6      	; 0x398c <turnOffPWM+0x4c>
    3986:	80 91 b0 00 	lds	r24, 0x00B0
    398a:	8f 7d       	andi	r24, 0xDF	; 223
    398c:	80 93 b0 00 	sts	0x00B0, r24
    3990:	08 95       	ret

00003992 <pinMode>:
    3992:	cf 93       	push	r28
    3994:	df 93       	push	r29
    3996:	90 e0       	ldi	r25, 0x00	; 0
    3998:	fc 01       	movw	r30, r24
    399a:	e2 53       	subi	r30, 0x32	; 50
    399c:	fe 4f       	sbci	r31, 0xFE	; 254
    399e:	24 91       	lpm	r18, Z
    39a0:	fc 01       	movw	r30, r24
    39a2:	ee 51       	subi	r30, 0x1E	; 30
    39a4:	fe 4f       	sbci	r31, 0xFE	; 254
    39a6:	84 91       	lpm	r24, Z
    39a8:	88 23       	and	r24, r24
    39aa:	61 f1       	breq	.+88     	; 0x3a04 <pinMode+0x72>
    39ac:	90 e0       	ldi	r25, 0x00	; 0
    39ae:	88 0f       	add	r24, r24
    39b0:	99 1f       	adc	r25, r25
    39b2:	fc 01       	movw	r30, r24
    39b4:	e6 5f       	subi	r30, 0xF6	; 246
    39b6:	fd 4f       	sbci	r31, 0xFD	; 253
    39b8:	c5 91       	lpm	r28, Z+
    39ba:	d4 91       	lpm	r29, Z
    39bc:	fc 01       	movw	r30, r24
    39be:	e0 50       	subi	r30, 0x00	; 0
    39c0:	fe 4f       	sbci	r31, 0xFE	; 254
    39c2:	a5 91       	lpm	r26, Z+
    39c4:	b4 91       	lpm	r27, Z
    39c6:	61 11       	cpse	r22, r1
    39c8:	09 c0       	rjmp	.+18     	; 0x39dc <pinMode+0x4a>
    39ca:	9f b7       	in	r25, 0x3f	; 63
    39cc:	f8 94       	cli
    39ce:	88 81       	ld	r24, Y
    39d0:	20 95       	com	r18
    39d2:	82 23       	and	r24, r18
    39d4:	88 83       	st	Y, r24
    39d6:	ec 91       	ld	r30, X
    39d8:	2e 23       	and	r18, r30
    39da:	0b c0       	rjmp	.+22     	; 0x39f2 <pinMode+0x60>
    39dc:	62 30       	cpi	r22, 0x02	; 2
    39de:	61 f4       	brne	.+24     	; 0x39f8 <pinMode+0x66>
    39e0:	9f b7       	in	r25, 0x3f	; 63
    39e2:	f8 94       	cli
    39e4:	38 81       	ld	r19, Y
    39e6:	82 2f       	mov	r24, r18
    39e8:	80 95       	com	r24
    39ea:	83 23       	and	r24, r19
    39ec:	88 83       	st	Y, r24
    39ee:	ec 91       	ld	r30, X
    39f0:	2e 2b       	or	r18, r30
    39f2:	2c 93       	st	X, r18
    39f4:	9f bf       	out	0x3f, r25	; 63
    39f6:	06 c0       	rjmp	.+12     	; 0x3a04 <pinMode+0x72>
    39f8:	8f b7       	in	r24, 0x3f	; 63
    39fa:	f8 94       	cli
    39fc:	e8 81       	ld	r30, Y
    39fe:	2e 2b       	or	r18, r30
    3a00:	28 83       	st	Y, r18
    3a02:	8f bf       	out	0x3f, r24	; 63
    3a04:	df 91       	pop	r29
    3a06:	cf 91       	pop	r28
    3a08:	08 95       	ret

00003a0a <digitalWrite>:
    3a0a:	1f 93       	push	r17
    3a0c:	cf 93       	push	r28
    3a0e:	df 93       	push	r29
    3a10:	28 2f       	mov	r18, r24
    3a12:	30 e0       	ldi	r19, 0x00	; 0
    3a14:	f9 01       	movw	r30, r18
    3a16:	e6 54       	subi	r30, 0x46	; 70
    3a18:	fe 4f       	sbci	r31, 0xFE	; 254
    3a1a:	84 91       	lpm	r24, Z
    3a1c:	f9 01       	movw	r30, r18
    3a1e:	e2 53       	subi	r30, 0x32	; 50
    3a20:	fe 4f       	sbci	r31, 0xFE	; 254
    3a22:	d4 91       	lpm	r29, Z
    3a24:	f9 01       	movw	r30, r18
    3a26:	ee 51       	subi	r30, 0x1E	; 30
    3a28:	fe 4f       	sbci	r31, 0xFE	; 254
    3a2a:	c4 91       	lpm	r28, Z
    3a2c:	cc 23       	and	r28, r28
    3a2e:	c9 f0       	breq	.+50     	; 0x3a62 <digitalWrite+0x58>
    3a30:	16 2f       	mov	r17, r22
    3a32:	81 11       	cpse	r24, r1
    3a34:	0e 94 a0 1c 	call	0x3940	; 0x3940 <turnOffPWM>
    3a38:	ec 2f       	mov	r30, r28
    3a3a:	f0 e0       	ldi	r31, 0x00	; 0
    3a3c:	ee 0f       	add	r30, r30
    3a3e:	ff 1f       	adc	r31, r31
    3a40:	e0 50       	subi	r30, 0x00	; 0
    3a42:	fe 4f       	sbci	r31, 0xFE	; 254
    3a44:	a5 91       	lpm	r26, Z+
    3a46:	b4 91       	lpm	r27, Z
    3a48:	8f b7       	in	r24, 0x3f	; 63
    3a4a:	f8 94       	cli
    3a4c:	11 11       	cpse	r17, r1
    3a4e:	05 c0       	rjmp	.+10     	; 0x3a5a <digitalWrite+0x50>
    3a50:	9c 91       	ld	r25, X
    3a52:	ed 2f       	mov	r30, r29
    3a54:	e0 95       	com	r30
    3a56:	e9 23       	and	r30, r25
    3a58:	02 c0       	rjmp	.+4      	; 0x3a5e <digitalWrite+0x54>
    3a5a:	ec 91       	ld	r30, X
    3a5c:	ed 2b       	or	r30, r29
    3a5e:	ec 93       	st	X, r30
    3a60:	8f bf       	out	0x3f, r24	; 63
    3a62:	df 91       	pop	r29
    3a64:	cf 91       	pop	r28
    3a66:	1f 91       	pop	r17
    3a68:	08 95       	ret

00003a6a <digitalRead>:
    3a6a:	cf 93       	push	r28
    3a6c:	df 93       	push	r29
    3a6e:	28 2f       	mov	r18, r24
    3a70:	30 e0       	ldi	r19, 0x00	; 0
    3a72:	f9 01       	movw	r30, r18
    3a74:	e6 54       	subi	r30, 0x46	; 70
    3a76:	fe 4f       	sbci	r31, 0xFE	; 254
    3a78:	84 91       	lpm	r24, Z
    3a7a:	f9 01       	movw	r30, r18
    3a7c:	e2 53       	subi	r30, 0x32	; 50
    3a7e:	fe 4f       	sbci	r31, 0xFE	; 254
    3a80:	d4 91       	lpm	r29, Z
    3a82:	f9 01       	movw	r30, r18
    3a84:	ee 51       	subi	r30, 0x1E	; 30
    3a86:	fe 4f       	sbci	r31, 0xFE	; 254
    3a88:	c4 91       	lpm	r28, Z
    3a8a:	cc 23       	and	r28, r28
    3a8c:	91 f0       	breq	.+36     	; 0x3ab2 <digitalRead+0x48>
    3a8e:	81 11       	cpse	r24, r1
    3a90:	0e 94 a0 1c 	call	0x3940	; 0x3940 <turnOffPWM>
    3a94:	ec 2f       	mov	r30, r28
    3a96:	f0 e0       	ldi	r31, 0x00	; 0
    3a98:	ee 0f       	add	r30, r30
    3a9a:	ff 1f       	adc	r31, r31
    3a9c:	ea 50       	subi	r30, 0x0A	; 10
    3a9e:	fe 4f       	sbci	r31, 0xFE	; 254
    3aa0:	a5 91       	lpm	r26, Z+
    3aa2:	b4 91       	lpm	r27, Z
    3aa4:	ec 91       	ld	r30, X
    3aa6:	ed 23       	and	r30, r29
    3aa8:	81 e0       	ldi	r24, 0x01	; 1
    3aaa:	90 e0       	ldi	r25, 0x00	; 0
    3aac:	21 f4       	brne	.+8      	; 0x3ab6 <digitalRead+0x4c>
    3aae:	80 e0       	ldi	r24, 0x00	; 0
    3ab0:	02 c0       	rjmp	.+4      	; 0x3ab6 <digitalRead+0x4c>
    3ab2:	80 e0       	ldi	r24, 0x00	; 0
    3ab4:	90 e0       	ldi	r25, 0x00	; 0
    3ab6:	df 91       	pop	r29
    3ab8:	cf 91       	pop	r28
    3aba:	08 95       	ret

00003abc <__subsf3>:
    3abc:	50 58       	subi	r21, 0x80	; 128

00003abe <__addsf3>:
    3abe:	bb 27       	eor	r27, r27
    3ac0:	aa 27       	eor	r26, r26
    3ac2:	0e 94 76 1d 	call	0x3aec	; 0x3aec <__addsf3x>
    3ac6:	0c 94 f0 1e 	jmp	0x3de0	; 0x3de0 <__fp_round>
    3aca:	0e 94 e2 1e 	call	0x3dc4	; 0x3dc4 <__fp_pscA>
    3ace:	38 f0       	brcs	.+14     	; 0x3ade <__addsf3+0x20>
    3ad0:	0e 94 e9 1e 	call	0x3dd2	; 0x3dd2 <__fp_pscB>
    3ad4:	20 f0       	brcs	.+8      	; 0x3ade <__addsf3+0x20>
    3ad6:	39 f4       	brne	.+14     	; 0x3ae6 <__addsf3+0x28>
    3ad8:	9f 3f       	cpi	r25, 0xFF	; 255
    3ada:	19 f4       	brne	.+6      	; 0x3ae2 <__addsf3+0x24>
    3adc:	26 f4       	brtc	.+8      	; 0x3ae6 <__addsf3+0x28>
    3ade:	0c 94 df 1e 	jmp	0x3dbe	; 0x3dbe <__fp_nan>
    3ae2:	0e f4       	brtc	.+2      	; 0x3ae6 <__addsf3+0x28>
    3ae4:	e0 95       	com	r30
    3ae6:	e7 fb       	bst	r30, 7
    3ae8:	0c 94 d9 1e 	jmp	0x3db2	; 0x3db2 <__fp_inf>

00003aec <__addsf3x>:
    3aec:	e9 2f       	mov	r30, r25
    3aee:	0e 94 01 1f 	call	0x3e02	; 0x3e02 <__fp_split3>
    3af2:	58 f3       	brcs	.-42     	; 0x3aca <__addsf3+0xc>
    3af4:	ba 17       	cp	r27, r26
    3af6:	62 07       	cpc	r22, r18
    3af8:	73 07       	cpc	r23, r19
    3afa:	84 07       	cpc	r24, r20
    3afc:	95 07       	cpc	r25, r21
    3afe:	20 f0       	brcs	.+8      	; 0x3b08 <__addsf3x+0x1c>
    3b00:	79 f4       	brne	.+30     	; 0x3b20 <__addsf3x+0x34>
    3b02:	a6 f5       	brtc	.+104    	; 0x3b6c <__addsf3x+0x80>
    3b04:	0c 94 23 1f 	jmp	0x3e46	; 0x3e46 <__fp_zero>
    3b08:	0e f4       	brtc	.+2      	; 0x3b0c <__addsf3x+0x20>
    3b0a:	e0 95       	com	r30
    3b0c:	0b 2e       	mov	r0, r27
    3b0e:	ba 2f       	mov	r27, r26
    3b10:	a0 2d       	mov	r26, r0
    3b12:	0b 01       	movw	r0, r22
    3b14:	b9 01       	movw	r22, r18
    3b16:	90 01       	movw	r18, r0
    3b18:	0c 01       	movw	r0, r24
    3b1a:	ca 01       	movw	r24, r20
    3b1c:	a0 01       	movw	r20, r0
    3b1e:	11 24       	eor	r1, r1
    3b20:	ff 27       	eor	r31, r31
    3b22:	59 1b       	sub	r21, r25
    3b24:	99 f0       	breq	.+38     	; 0x3b4c <__addsf3x+0x60>
    3b26:	59 3f       	cpi	r21, 0xF9	; 249
    3b28:	50 f4       	brcc	.+20     	; 0x3b3e <__addsf3x+0x52>
    3b2a:	50 3e       	cpi	r21, 0xE0	; 224
    3b2c:	68 f1       	brcs	.+90     	; 0x3b88 <__addsf3x+0x9c>
    3b2e:	1a 16       	cp	r1, r26
    3b30:	f0 40       	sbci	r31, 0x00	; 0
    3b32:	a2 2f       	mov	r26, r18
    3b34:	23 2f       	mov	r18, r19
    3b36:	34 2f       	mov	r19, r20
    3b38:	44 27       	eor	r20, r20
    3b3a:	58 5f       	subi	r21, 0xF8	; 248
    3b3c:	f3 cf       	rjmp	.-26     	; 0x3b24 <__addsf3x+0x38>
    3b3e:	46 95       	lsr	r20
    3b40:	37 95       	ror	r19
    3b42:	27 95       	ror	r18
    3b44:	a7 95       	ror	r26
    3b46:	f0 40       	sbci	r31, 0x00	; 0
    3b48:	53 95       	inc	r21
    3b4a:	c9 f7       	brne	.-14     	; 0x3b3e <__addsf3x+0x52>
    3b4c:	7e f4       	brtc	.+30     	; 0x3b6c <__addsf3x+0x80>
    3b4e:	1f 16       	cp	r1, r31
    3b50:	ba 0b       	sbc	r27, r26
    3b52:	62 0b       	sbc	r22, r18
    3b54:	73 0b       	sbc	r23, r19
    3b56:	84 0b       	sbc	r24, r20
    3b58:	ba f0       	brmi	.+46     	; 0x3b88 <__addsf3x+0x9c>
    3b5a:	91 50       	subi	r25, 0x01	; 1
    3b5c:	a1 f0       	breq	.+40     	; 0x3b86 <__addsf3x+0x9a>
    3b5e:	ff 0f       	add	r31, r31
    3b60:	bb 1f       	adc	r27, r27
    3b62:	66 1f       	adc	r22, r22
    3b64:	77 1f       	adc	r23, r23
    3b66:	88 1f       	adc	r24, r24
    3b68:	c2 f7       	brpl	.-16     	; 0x3b5a <__addsf3x+0x6e>
    3b6a:	0e c0       	rjmp	.+28     	; 0x3b88 <__addsf3x+0x9c>
    3b6c:	ba 0f       	add	r27, r26
    3b6e:	62 1f       	adc	r22, r18
    3b70:	73 1f       	adc	r23, r19
    3b72:	84 1f       	adc	r24, r20
    3b74:	48 f4       	brcc	.+18     	; 0x3b88 <__addsf3x+0x9c>
    3b76:	87 95       	ror	r24
    3b78:	77 95       	ror	r23
    3b7a:	67 95       	ror	r22
    3b7c:	b7 95       	ror	r27
    3b7e:	f7 95       	ror	r31
    3b80:	9e 3f       	cpi	r25, 0xFE	; 254
    3b82:	08 f0       	brcs	.+2      	; 0x3b86 <__addsf3x+0x9a>
    3b84:	b0 cf       	rjmp	.-160    	; 0x3ae6 <__addsf3+0x28>
    3b86:	93 95       	inc	r25
    3b88:	88 0f       	add	r24, r24
    3b8a:	08 f0       	brcs	.+2      	; 0x3b8e <__addsf3x+0xa2>
    3b8c:	99 27       	eor	r25, r25
    3b8e:	ee 0f       	add	r30, r30
    3b90:	97 95       	ror	r25
    3b92:	87 95       	ror	r24
    3b94:	08 95       	ret

00003b96 <__cmpsf2>:
    3b96:	0e 94 b5 1e 	call	0x3d6a	; 0x3d6a <__fp_cmp>
    3b9a:	08 f4       	brcc	.+2      	; 0x3b9e <__cmpsf2+0x8>
    3b9c:	81 e0       	ldi	r24, 0x01	; 1
    3b9e:	08 95       	ret

00003ba0 <__divsf3>:
    3ba0:	0e 94 e4 1d 	call	0x3bc8	; 0x3bc8 <__divsf3x>
    3ba4:	0c 94 f0 1e 	jmp	0x3de0	; 0x3de0 <__fp_round>
    3ba8:	0e 94 e9 1e 	call	0x3dd2	; 0x3dd2 <__fp_pscB>
    3bac:	58 f0       	brcs	.+22     	; 0x3bc4 <__divsf3+0x24>
    3bae:	0e 94 e2 1e 	call	0x3dc4	; 0x3dc4 <__fp_pscA>
    3bb2:	40 f0       	brcs	.+16     	; 0x3bc4 <__divsf3+0x24>
    3bb4:	29 f4       	brne	.+10     	; 0x3bc0 <__divsf3+0x20>
    3bb6:	5f 3f       	cpi	r21, 0xFF	; 255
    3bb8:	29 f0       	breq	.+10     	; 0x3bc4 <__divsf3+0x24>
    3bba:	0c 94 d9 1e 	jmp	0x3db2	; 0x3db2 <__fp_inf>
    3bbe:	51 11       	cpse	r21, r1
    3bc0:	0c 94 24 1f 	jmp	0x3e48	; 0x3e48 <__fp_szero>
    3bc4:	0c 94 df 1e 	jmp	0x3dbe	; 0x3dbe <__fp_nan>

00003bc8 <__divsf3x>:
    3bc8:	0e 94 01 1f 	call	0x3e02	; 0x3e02 <__fp_split3>
    3bcc:	68 f3       	brcs	.-38     	; 0x3ba8 <__divsf3+0x8>

00003bce <__divsf3_pse>:
    3bce:	99 23       	and	r25, r25
    3bd0:	b1 f3       	breq	.-20     	; 0x3bbe <__divsf3+0x1e>
    3bd2:	55 23       	and	r21, r21
    3bd4:	91 f3       	breq	.-28     	; 0x3bba <__divsf3+0x1a>
    3bd6:	95 1b       	sub	r25, r21
    3bd8:	55 0b       	sbc	r21, r21
    3bda:	bb 27       	eor	r27, r27
    3bdc:	aa 27       	eor	r26, r26
    3bde:	62 17       	cp	r22, r18
    3be0:	73 07       	cpc	r23, r19
    3be2:	84 07       	cpc	r24, r20
    3be4:	38 f0       	brcs	.+14     	; 0x3bf4 <__divsf3_pse+0x26>
    3be6:	9f 5f       	subi	r25, 0xFF	; 255
    3be8:	5f 4f       	sbci	r21, 0xFF	; 255
    3bea:	22 0f       	add	r18, r18
    3bec:	33 1f       	adc	r19, r19
    3bee:	44 1f       	adc	r20, r20
    3bf0:	aa 1f       	adc	r26, r26
    3bf2:	a9 f3       	breq	.-22     	; 0x3bde <__divsf3_pse+0x10>
    3bf4:	35 d0       	rcall	.+106    	; 0x3c60 <__divsf3_pse+0x92>
    3bf6:	0e 2e       	mov	r0, r30
    3bf8:	3a f0       	brmi	.+14     	; 0x3c08 <__divsf3_pse+0x3a>
    3bfa:	e0 e8       	ldi	r30, 0x80	; 128
    3bfc:	32 d0       	rcall	.+100    	; 0x3c62 <__divsf3_pse+0x94>
    3bfe:	91 50       	subi	r25, 0x01	; 1
    3c00:	50 40       	sbci	r21, 0x00	; 0
    3c02:	e6 95       	lsr	r30
    3c04:	00 1c       	adc	r0, r0
    3c06:	ca f7       	brpl	.-14     	; 0x3bfa <__divsf3_pse+0x2c>
    3c08:	2b d0       	rcall	.+86     	; 0x3c60 <__divsf3_pse+0x92>
    3c0a:	fe 2f       	mov	r31, r30
    3c0c:	29 d0       	rcall	.+82     	; 0x3c60 <__divsf3_pse+0x92>
    3c0e:	66 0f       	add	r22, r22
    3c10:	77 1f       	adc	r23, r23
    3c12:	88 1f       	adc	r24, r24
    3c14:	bb 1f       	adc	r27, r27
    3c16:	26 17       	cp	r18, r22
    3c18:	37 07       	cpc	r19, r23
    3c1a:	48 07       	cpc	r20, r24
    3c1c:	ab 07       	cpc	r26, r27
    3c1e:	b0 e8       	ldi	r27, 0x80	; 128
    3c20:	09 f0       	breq	.+2      	; 0x3c24 <__divsf3_pse+0x56>
    3c22:	bb 0b       	sbc	r27, r27
    3c24:	80 2d       	mov	r24, r0
    3c26:	bf 01       	movw	r22, r30
    3c28:	ff 27       	eor	r31, r31
    3c2a:	93 58       	subi	r25, 0x83	; 131
    3c2c:	5f 4f       	sbci	r21, 0xFF	; 255
    3c2e:	3a f0       	brmi	.+14     	; 0x3c3e <__divsf3_pse+0x70>
    3c30:	9e 3f       	cpi	r25, 0xFE	; 254
    3c32:	51 05       	cpc	r21, r1
    3c34:	78 f0       	brcs	.+30     	; 0x3c54 <__divsf3_pse+0x86>
    3c36:	0c 94 d9 1e 	jmp	0x3db2	; 0x3db2 <__fp_inf>
    3c3a:	0c 94 24 1f 	jmp	0x3e48	; 0x3e48 <__fp_szero>
    3c3e:	5f 3f       	cpi	r21, 0xFF	; 255
    3c40:	e4 f3       	brlt	.-8      	; 0x3c3a <__divsf3_pse+0x6c>
    3c42:	98 3e       	cpi	r25, 0xE8	; 232
    3c44:	d4 f3       	brlt	.-12     	; 0x3c3a <__divsf3_pse+0x6c>
    3c46:	86 95       	lsr	r24
    3c48:	77 95       	ror	r23
    3c4a:	67 95       	ror	r22
    3c4c:	b7 95       	ror	r27
    3c4e:	f7 95       	ror	r31
    3c50:	9f 5f       	subi	r25, 0xFF	; 255
    3c52:	c9 f7       	brne	.-14     	; 0x3c46 <__divsf3_pse+0x78>
    3c54:	88 0f       	add	r24, r24
    3c56:	91 1d       	adc	r25, r1
    3c58:	96 95       	lsr	r25
    3c5a:	87 95       	ror	r24
    3c5c:	97 f9       	bld	r25, 7
    3c5e:	08 95       	ret
    3c60:	e1 e0       	ldi	r30, 0x01	; 1
    3c62:	66 0f       	add	r22, r22
    3c64:	77 1f       	adc	r23, r23
    3c66:	88 1f       	adc	r24, r24
    3c68:	bb 1f       	adc	r27, r27
    3c6a:	62 17       	cp	r22, r18
    3c6c:	73 07       	cpc	r23, r19
    3c6e:	84 07       	cpc	r24, r20
    3c70:	ba 07       	cpc	r27, r26
    3c72:	20 f0       	brcs	.+8      	; 0x3c7c <__divsf3_pse+0xae>
    3c74:	62 1b       	sub	r22, r18
    3c76:	73 0b       	sbc	r23, r19
    3c78:	84 0b       	sbc	r24, r20
    3c7a:	ba 0b       	sbc	r27, r26
    3c7c:	ee 1f       	adc	r30, r30
    3c7e:	88 f7       	brcc	.-30     	; 0x3c62 <__divsf3_pse+0x94>
    3c80:	e0 95       	com	r30
    3c82:	08 95       	ret

00003c84 <__fixsfsi>:
    3c84:	0e 94 49 1e 	call	0x3c92	; 0x3c92 <__fixunssfsi>
    3c88:	68 94       	set
    3c8a:	b1 11       	cpse	r27, r1
    3c8c:	0c 94 24 1f 	jmp	0x3e48	; 0x3e48 <__fp_szero>
    3c90:	08 95       	ret

00003c92 <__fixunssfsi>:
    3c92:	0e 94 09 1f 	call	0x3e12	; 0x3e12 <__fp_splitA>
    3c96:	88 f0       	brcs	.+34     	; 0x3cba <__fixunssfsi+0x28>
    3c98:	9f 57       	subi	r25, 0x7F	; 127
    3c9a:	98 f0       	brcs	.+38     	; 0x3cc2 <__fixunssfsi+0x30>
    3c9c:	b9 2f       	mov	r27, r25
    3c9e:	99 27       	eor	r25, r25
    3ca0:	b7 51       	subi	r27, 0x17	; 23
    3ca2:	b0 f0       	brcs	.+44     	; 0x3cd0 <__fixunssfsi+0x3e>
    3ca4:	e1 f0       	breq	.+56     	; 0x3cde <__fixunssfsi+0x4c>
    3ca6:	66 0f       	add	r22, r22
    3ca8:	77 1f       	adc	r23, r23
    3caa:	88 1f       	adc	r24, r24
    3cac:	99 1f       	adc	r25, r25
    3cae:	1a f0       	brmi	.+6      	; 0x3cb6 <__fixunssfsi+0x24>
    3cb0:	ba 95       	dec	r27
    3cb2:	c9 f7       	brne	.-14     	; 0x3ca6 <__fixunssfsi+0x14>
    3cb4:	14 c0       	rjmp	.+40     	; 0x3cde <__fixunssfsi+0x4c>
    3cb6:	b1 30       	cpi	r27, 0x01	; 1
    3cb8:	91 f0       	breq	.+36     	; 0x3cde <__fixunssfsi+0x4c>
    3cba:	0e 94 23 1f 	call	0x3e46	; 0x3e46 <__fp_zero>
    3cbe:	b1 e0       	ldi	r27, 0x01	; 1
    3cc0:	08 95       	ret
    3cc2:	0c 94 23 1f 	jmp	0x3e46	; 0x3e46 <__fp_zero>
    3cc6:	67 2f       	mov	r22, r23
    3cc8:	78 2f       	mov	r23, r24
    3cca:	88 27       	eor	r24, r24
    3ccc:	b8 5f       	subi	r27, 0xF8	; 248
    3cce:	39 f0       	breq	.+14     	; 0x3cde <__fixunssfsi+0x4c>
    3cd0:	b9 3f       	cpi	r27, 0xF9	; 249
    3cd2:	cc f3       	brlt	.-14     	; 0x3cc6 <__fixunssfsi+0x34>
    3cd4:	86 95       	lsr	r24
    3cd6:	77 95       	ror	r23
    3cd8:	67 95       	ror	r22
    3cda:	b3 95       	inc	r27
    3cdc:	d9 f7       	brne	.-10     	; 0x3cd4 <__fixunssfsi+0x42>
    3cde:	3e f4       	brtc	.+14     	; 0x3cee <__fixunssfsi+0x5c>
    3ce0:	90 95       	com	r25
    3ce2:	80 95       	com	r24
    3ce4:	70 95       	com	r23
    3ce6:	61 95       	neg	r22
    3ce8:	7f 4f       	sbci	r23, 0xFF	; 255
    3cea:	8f 4f       	sbci	r24, 0xFF	; 255
    3cec:	9f 4f       	sbci	r25, 0xFF	; 255
    3cee:	08 95       	ret

00003cf0 <__floatunsisf>:
    3cf0:	e8 94       	clt
    3cf2:	09 c0       	rjmp	.+18     	; 0x3d06 <__floatsisf+0x12>

00003cf4 <__floatsisf>:
    3cf4:	97 fb       	bst	r25, 7
    3cf6:	3e f4       	brtc	.+14     	; 0x3d06 <__floatsisf+0x12>
    3cf8:	90 95       	com	r25
    3cfa:	80 95       	com	r24
    3cfc:	70 95       	com	r23
    3cfe:	61 95       	neg	r22
    3d00:	7f 4f       	sbci	r23, 0xFF	; 255
    3d02:	8f 4f       	sbci	r24, 0xFF	; 255
    3d04:	9f 4f       	sbci	r25, 0xFF	; 255
    3d06:	99 23       	and	r25, r25
    3d08:	a9 f0       	breq	.+42     	; 0x3d34 <__floatsisf+0x40>
    3d0a:	f9 2f       	mov	r31, r25
    3d0c:	96 e9       	ldi	r25, 0x96	; 150
    3d0e:	bb 27       	eor	r27, r27
    3d10:	93 95       	inc	r25
    3d12:	f6 95       	lsr	r31
    3d14:	87 95       	ror	r24
    3d16:	77 95       	ror	r23
    3d18:	67 95       	ror	r22
    3d1a:	b7 95       	ror	r27
    3d1c:	f1 11       	cpse	r31, r1
    3d1e:	f8 cf       	rjmp	.-16     	; 0x3d10 <__floatsisf+0x1c>
    3d20:	fa f4       	brpl	.+62     	; 0x3d60 <__floatsisf+0x6c>
    3d22:	bb 0f       	add	r27, r27
    3d24:	11 f4       	brne	.+4      	; 0x3d2a <__floatsisf+0x36>
    3d26:	60 ff       	sbrs	r22, 0
    3d28:	1b c0       	rjmp	.+54     	; 0x3d60 <__floatsisf+0x6c>
    3d2a:	6f 5f       	subi	r22, 0xFF	; 255
    3d2c:	7f 4f       	sbci	r23, 0xFF	; 255
    3d2e:	8f 4f       	sbci	r24, 0xFF	; 255
    3d30:	9f 4f       	sbci	r25, 0xFF	; 255
    3d32:	16 c0       	rjmp	.+44     	; 0x3d60 <__floatsisf+0x6c>
    3d34:	88 23       	and	r24, r24
    3d36:	11 f0       	breq	.+4      	; 0x3d3c <__floatsisf+0x48>
    3d38:	96 e9       	ldi	r25, 0x96	; 150
    3d3a:	11 c0       	rjmp	.+34     	; 0x3d5e <__floatsisf+0x6a>
    3d3c:	77 23       	and	r23, r23
    3d3e:	21 f0       	breq	.+8      	; 0x3d48 <__floatsisf+0x54>
    3d40:	9e e8       	ldi	r25, 0x8E	; 142
    3d42:	87 2f       	mov	r24, r23
    3d44:	76 2f       	mov	r23, r22
    3d46:	05 c0       	rjmp	.+10     	; 0x3d52 <__floatsisf+0x5e>
    3d48:	66 23       	and	r22, r22
    3d4a:	71 f0       	breq	.+28     	; 0x3d68 <__floatsisf+0x74>
    3d4c:	96 e8       	ldi	r25, 0x86	; 134
    3d4e:	86 2f       	mov	r24, r22
    3d50:	70 e0       	ldi	r23, 0x00	; 0
    3d52:	60 e0       	ldi	r22, 0x00	; 0
    3d54:	2a f0       	brmi	.+10     	; 0x3d60 <__floatsisf+0x6c>
    3d56:	9a 95       	dec	r25
    3d58:	66 0f       	add	r22, r22
    3d5a:	77 1f       	adc	r23, r23
    3d5c:	88 1f       	adc	r24, r24
    3d5e:	da f7       	brpl	.-10     	; 0x3d56 <__floatsisf+0x62>
    3d60:	88 0f       	add	r24, r24
    3d62:	96 95       	lsr	r25
    3d64:	87 95       	ror	r24
    3d66:	97 f9       	bld	r25, 7
    3d68:	08 95       	ret

00003d6a <__fp_cmp>:
    3d6a:	99 0f       	add	r25, r25
    3d6c:	00 08       	sbc	r0, r0
    3d6e:	55 0f       	add	r21, r21
    3d70:	aa 0b       	sbc	r26, r26
    3d72:	e0 e8       	ldi	r30, 0x80	; 128
    3d74:	fe ef       	ldi	r31, 0xFE	; 254
    3d76:	16 16       	cp	r1, r22
    3d78:	17 06       	cpc	r1, r23
    3d7a:	e8 07       	cpc	r30, r24
    3d7c:	f9 07       	cpc	r31, r25
    3d7e:	c0 f0       	brcs	.+48     	; 0x3db0 <__fp_cmp+0x46>
    3d80:	12 16       	cp	r1, r18
    3d82:	13 06       	cpc	r1, r19
    3d84:	e4 07       	cpc	r30, r20
    3d86:	f5 07       	cpc	r31, r21
    3d88:	98 f0       	brcs	.+38     	; 0x3db0 <__fp_cmp+0x46>
    3d8a:	62 1b       	sub	r22, r18
    3d8c:	73 0b       	sbc	r23, r19
    3d8e:	84 0b       	sbc	r24, r20
    3d90:	95 0b       	sbc	r25, r21
    3d92:	39 f4       	brne	.+14     	; 0x3da2 <__fp_cmp+0x38>
    3d94:	0a 26       	eor	r0, r26
    3d96:	61 f0       	breq	.+24     	; 0x3db0 <__fp_cmp+0x46>
    3d98:	23 2b       	or	r18, r19
    3d9a:	24 2b       	or	r18, r20
    3d9c:	25 2b       	or	r18, r21
    3d9e:	21 f4       	brne	.+8      	; 0x3da8 <__fp_cmp+0x3e>
    3da0:	08 95       	ret
    3da2:	0a 26       	eor	r0, r26
    3da4:	09 f4       	brne	.+2      	; 0x3da8 <__fp_cmp+0x3e>
    3da6:	a1 40       	sbci	r26, 0x01	; 1
    3da8:	a6 95       	lsr	r26
    3daa:	8f ef       	ldi	r24, 0xFF	; 255
    3dac:	81 1d       	adc	r24, r1
    3dae:	81 1d       	adc	r24, r1
    3db0:	08 95       	ret

00003db2 <__fp_inf>:
    3db2:	97 f9       	bld	r25, 7
    3db4:	9f 67       	ori	r25, 0x7F	; 127
    3db6:	80 e8       	ldi	r24, 0x80	; 128
    3db8:	70 e0       	ldi	r23, 0x00	; 0
    3dba:	60 e0       	ldi	r22, 0x00	; 0
    3dbc:	08 95       	ret

00003dbe <__fp_nan>:
    3dbe:	9f ef       	ldi	r25, 0xFF	; 255
    3dc0:	80 ec       	ldi	r24, 0xC0	; 192
    3dc2:	08 95       	ret

00003dc4 <__fp_pscA>:
    3dc4:	00 24       	eor	r0, r0
    3dc6:	0a 94       	dec	r0
    3dc8:	16 16       	cp	r1, r22
    3dca:	17 06       	cpc	r1, r23
    3dcc:	18 06       	cpc	r1, r24
    3dce:	09 06       	cpc	r0, r25
    3dd0:	08 95       	ret

00003dd2 <__fp_pscB>:
    3dd2:	00 24       	eor	r0, r0
    3dd4:	0a 94       	dec	r0
    3dd6:	12 16       	cp	r1, r18
    3dd8:	13 06       	cpc	r1, r19
    3dda:	14 06       	cpc	r1, r20
    3ddc:	05 06       	cpc	r0, r21
    3dde:	08 95       	ret

00003de0 <__fp_round>:
    3de0:	09 2e       	mov	r0, r25
    3de2:	03 94       	inc	r0
    3de4:	00 0c       	add	r0, r0
    3de6:	11 f4       	brne	.+4      	; 0x3dec <__fp_round+0xc>
    3de8:	88 23       	and	r24, r24
    3dea:	52 f0       	brmi	.+20     	; 0x3e00 <__fp_round+0x20>
    3dec:	bb 0f       	add	r27, r27
    3dee:	40 f4       	brcc	.+16     	; 0x3e00 <__fp_round+0x20>
    3df0:	bf 2b       	or	r27, r31
    3df2:	11 f4       	brne	.+4      	; 0x3df8 <__fp_round+0x18>
    3df4:	60 ff       	sbrs	r22, 0
    3df6:	04 c0       	rjmp	.+8      	; 0x3e00 <__fp_round+0x20>
    3df8:	6f 5f       	subi	r22, 0xFF	; 255
    3dfa:	7f 4f       	sbci	r23, 0xFF	; 255
    3dfc:	8f 4f       	sbci	r24, 0xFF	; 255
    3dfe:	9f 4f       	sbci	r25, 0xFF	; 255
    3e00:	08 95       	ret

00003e02 <__fp_split3>:
    3e02:	57 fd       	sbrc	r21, 7
    3e04:	90 58       	subi	r25, 0x80	; 128
    3e06:	44 0f       	add	r20, r20
    3e08:	55 1f       	adc	r21, r21
    3e0a:	59 f0       	breq	.+22     	; 0x3e22 <__fp_splitA+0x10>
    3e0c:	5f 3f       	cpi	r21, 0xFF	; 255
    3e0e:	71 f0       	breq	.+28     	; 0x3e2c <__fp_splitA+0x1a>
    3e10:	47 95       	ror	r20

00003e12 <__fp_splitA>:
    3e12:	88 0f       	add	r24, r24
    3e14:	97 fb       	bst	r25, 7
    3e16:	99 1f       	adc	r25, r25
    3e18:	61 f0       	breq	.+24     	; 0x3e32 <__fp_splitA+0x20>
    3e1a:	9f 3f       	cpi	r25, 0xFF	; 255
    3e1c:	79 f0       	breq	.+30     	; 0x3e3c <__fp_splitA+0x2a>
    3e1e:	87 95       	ror	r24
    3e20:	08 95       	ret
    3e22:	12 16       	cp	r1, r18
    3e24:	13 06       	cpc	r1, r19
    3e26:	14 06       	cpc	r1, r20
    3e28:	55 1f       	adc	r21, r21
    3e2a:	f2 cf       	rjmp	.-28     	; 0x3e10 <__fp_split3+0xe>
    3e2c:	46 95       	lsr	r20
    3e2e:	f1 df       	rcall	.-30     	; 0x3e12 <__fp_splitA>
    3e30:	08 c0       	rjmp	.+16     	; 0x3e42 <__fp_splitA+0x30>
    3e32:	16 16       	cp	r1, r22
    3e34:	17 06       	cpc	r1, r23
    3e36:	18 06       	cpc	r1, r24
    3e38:	99 1f       	adc	r25, r25
    3e3a:	f1 cf       	rjmp	.-30     	; 0x3e1e <__fp_splitA+0xc>
    3e3c:	86 95       	lsr	r24
    3e3e:	71 05       	cpc	r23, r1
    3e40:	61 05       	cpc	r22, r1
    3e42:	08 94       	sec
    3e44:	08 95       	ret

00003e46 <__fp_zero>:
    3e46:	e8 94       	clt

00003e48 <__fp_szero>:
    3e48:	bb 27       	eor	r27, r27
    3e4a:	66 27       	eor	r22, r22
    3e4c:	77 27       	eor	r23, r23
    3e4e:	cb 01       	movw	r24, r22
    3e50:	97 f9       	bld	r25, 7
    3e52:	08 95       	ret

00003e54 <__gesf2>:
    3e54:	0e 94 b5 1e 	call	0x3d6a	; 0x3d6a <__fp_cmp>
    3e58:	08 f4       	brcc	.+2      	; 0x3e5c <__gesf2+0x8>
    3e5a:	8f ef       	ldi	r24, 0xFF	; 255
    3e5c:	08 95       	ret

00003e5e <__mulsf3>:
    3e5e:	0e 94 42 1f 	call	0x3e84	; 0x3e84 <__mulsf3x>
    3e62:	0c 94 f0 1e 	jmp	0x3de0	; 0x3de0 <__fp_round>
    3e66:	0e 94 e2 1e 	call	0x3dc4	; 0x3dc4 <__fp_pscA>
    3e6a:	38 f0       	brcs	.+14     	; 0x3e7a <__mulsf3+0x1c>
    3e6c:	0e 94 e9 1e 	call	0x3dd2	; 0x3dd2 <__fp_pscB>
    3e70:	20 f0       	brcs	.+8      	; 0x3e7a <__mulsf3+0x1c>
    3e72:	95 23       	and	r25, r21
    3e74:	11 f0       	breq	.+4      	; 0x3e7a <__mulsf3+0x1c>
    3e76:	0c 94 d9 1e 	jmp	0x3db2	; 0x3db2 <__fp_inf>
    3e7a:	0c 94 df 1e 	jmp	0x3dbe	; 0x3dbe <__fp_nan>
    3e7e:	11 24       	eor	r1, r1
    3e80:	0c 94 24 1f 	jmp	0x3e48	; 0x3e48 <__fp_szero>

00003e84 <__mulsf3x>:
    3e84:	0e 94 01 1f 	call	0x3e02	; 0x3e02 <__fp_split3>
    3e88:	70 f3       	brcs	.-36     	; 0x3e66 <__mulsf3+0x8>

00003e8a <__mulsf3_pse>:
    3e8a:	95 9f       	mul	r25, r21
    3e8c:	c1 f3       	breq	.-16     	; 0x3e7e <__mulsf3+0x20>
    3e8e:	95 0f       	add	r25, r21
    3e90:	50 e0       	ldi	r21, 0x00	; 0
    3e92:	55 1f       	adc	r21, r21
    3e94:	62 9f       	mul	r22, r18
    3e96:	f0 01       	movw	r30, r0
    3e98:	72 9f       	mul	r23, r18
    3e9a:	bb 27       	eor	r27, r27
    3e9c:	f0 0d       	add	r31, r0
    3e9e:	b1 1d       	adc	r27, r1
    3ea0:	63 9f       	mul	r22, r19
    3ea2:	aa 27       	eor	r26, r26
    3ea4:	f0 0d       	add	r31, r0
    3ea6:	b1 1d       	adc	r27, r1
    3ea8:	aa 1f       	adc	r26, r26
    3eaa:	64 9f       	mul	r22, r20
    3eac:	66 27       	eor	r22, r22
    3eae:	b0 0d       	add	r27, r0
    3eb0:	a1 1d       	adc	r26, r1
    3eb2:	66 1f       	adc	r22, r22
    3eb4:	82 9f       	mul	r24, r18
    3eb6:	22 27       	eor	r18, r18
    3eb8:	b0 0d       	add	r27, r0
    3eba:	a1 1d       	adc	r26, r1
    3ebc:	62 1f       	adc	r22, r18
    3ebe:	73 9f       	mul	r23, r19
    3ec0:	b0 0d       	add	r27, r0
    3ec2:	a1 1d       	adc	r26, r1
    3ec4:	62 1f       	adc	r22, r18
    3ec6:	83 9f       	mul	r24, r19
    3ec8:	a0 0d       	add	r26, r0
    3eca:	61 1d       	adc	r22, r1
    3ecc:	22 1f       	adc	r18, r18
    3ece:	74 9f       	mul	r23, r20
    3ed0:	33 27       	eor	r19, r19
    3ed2:	a0 0d       	add	r26, r0
    3ed4:	61 1d       	adc	r22, r1
    3ed6:	23 1f       	adc	r18, r19
    3ed8:	84 9f       	mul	r24, r20
    3eda:	60 0d       	add	r22, r0
    3edc:	21 1d       	adc	r18, r1
    3ede:	82 2f       	mov	r24, r18
    3ee0:	76 2f       	mov	r23, r22
    3ee2:	6a 2f       	mov	r22, r26
    3ee4:	11 24       	eor	r1, r1
    3ee6:	9f 57       	subi	r25, 0x7F	; 127
    3ee8:	50 40       	sbci	r21, 0x00	; 0
    3eea:	9a f0       	brmi	.+38     	; 0x3f12 <__mulsf3_pse+0x88>
    3eec:	f1 f0       	breq	.+60     	; 0x3f2a <__mulsf3_pse+0xa0>
    3eee:	88 23       	and	r24, r24
    3ef0:	4a f0       	brmi	.+18     	; 0x3f04 <__mulsf3_pse+0x7a>
    3ef2:	ee 0f       	add	r30, r30
    3ef4:	ff 1f       	adc	r31, r31
    3ef6:	bb 1f       	adc	r27, r27
    3ef8:	66 1f       	adc	r22, r22
    3efa:	77 1f       	adc	r23, r23
    3efc:	88 1f       	adc	r24, r24
    3efe:	91 50       	subi	r25, 0x01	; 1
    3f00:	50 40       	sbci	r21, 0x00	; 0
    3f02:	a9 f7       	brne	.-22     	; 0x3eee <__mulsf3_pse+0x64>
    3f04:	9e 3f       	cpi	r25, 0xFE	; 254
    3f06:	51 05       	cpc	r21, r1
    3f08:	80 f0       	brcs	.+32     	; 0x3f2a <__mulsf3_pse+0xa0>
    3f0a:	0c 94 d9 1e 	jmp	0x3db2	; 0x3db2 <__fp_inf>
    3f0e:	0c 94 24 1f 	jmp	0x3e48	; 0x3e48 <__fp_szero>
    3f12:	5f 3f       	cpi	r21, 0xFF	; 255
    3f14:	e4 f3       	brlt	.-8      	; 0x3f0e <__mulsf3_pse+0x84>
    3f16:	98 3e       	cpi	r25, 0xE8	; 232
    3f18:	d4 f3       	brlt	.-12     	; 0x3f0e <__mulsf3_pse+0x84>
    3f1a:	86 95       	lsr	r24
    3f1c:	77 95       	ror	r23
    3f1e:	67 95       	ror	r22
    3f20:	b7 95       	ror	r27
    3f22:	f7 95       	ror	r31
    3f24:	e7 95       	ror	r30
    3f26:	9f 5f       	subi	r25, 0xFF	; 255
    3f28:	c1 f7       	brne	.-16     	; 0x3f1a <__mulsf3_pse+0x90>
    3f2a:	fe 2b       	or	r31, r30
    3f2c:	88 0f       	add	r24, r24
    3f2e:	91 1d       	adc	r25, r1
    3f30:	96 95       	lsr	r25
    3f32:	87 95       	ror	r24
    3f34:	97 f9       	bld	r25, 7
    3f36:	08 95       	ret

00003f38 <__unordsf2>:
    3f38:	0e 94 b5 1e 	call	0x3d6a	; 0x3d6a <__fp_cmp>
    3f3c:	88 0b       	sbc	r24, r24
    3f3e:	99 0b       	sbc	r25, r25
    3f40:	08 95       	ret

00003f42 <__mulsi3>:
    3f42:	db 01       	movw	r26, r22
    3f44:	8f 93       	push	r24
    3f46:	9f 93       	push	r25
    3f48:	0e 94 0c 20 	call	0x4018	; 0x4018 <__muluhisi3>
    3f4c:	bf 91       	pop	r27
    3f4e:	af 91       	pop	r26
    3f50:	a2 9f       	mul	r26, r18
    3f52:	80 0d       	add	r24, r0
    3f54:	91 1d       	adc	r25, r1
    3f56:	a3 9f       	mul	r26, r19
    3f58:	90 0d       	add	r25, r0
    3f5a:	b2 9f       	mul	r27, r18
    3f5c:	90 0d       	add	r25, r0
    3f5e:	11 24       	eor	r1, r1
    3f60:	08 95       	ret

00003f62 <__divmodhi4>:
    3f62:	97 fb       	bst	r25, 7
    3f64:	07 2e       	mov	r0, r23
    3f66:	16 f4       	brtc	.+4      	; 0x3f6c <__divmodhi4+0xa>
    3f68:	00 94       	com	r0
    3f6a:	07 d0       	rcall	.+14     	; 0x3f7a <__divmodhi4_neg1>
    3f6c:	77 fd       	sbrc	r23, 7
    3f6e:	09 d0       	rcall	.+18     	; 0x3f82 <__divmodhi4_neg2>
    3f70:	0e 94 1f 20 	call	0x403e	; 0x403e <__udivmodhi4>
    3f74:	07 fc       	sbrc	r0, 7
    3f76:	05 d0       	rcall	.+10     	; 0x3f82 <__divmodhi4_neg2>
    3f78:	3e f4       	brtc	.+14     	; 0x3f88 <__divmodhi4_exit>

00003f7a <__divmodhi4_neg1>:
    3f7a:	90 95       	com	r25
    3f7c:	81 95       	neg	r24
    3f7e:	9f 4f       	sbci	r25, 0xFF	; 255
    3f80:	08 95       	ret

00003f82 <__divmodhi4_neg2>:
    3f82:	70 95       	com	r23
    3f84:	61 95       	neg	r22
    3f86:	7f 4f       	sbci	r23, 0xFF	; 255

00003f88 <__divmodhi4_exit>:
    3f88:	08 95       	ret

00003f8a <__udivmodsi4>:
    3f8a:	a1 e2       	ldi	r26, 0x21	; 33
    3f8c:	1a 2e       	mov	r1, r26
    3f8e:	aa 1b       	sub	r26, r26
    3f90:	bb 1b       	sub	r27, r27
    3f92:	fd 01       	movw	r30, r26
    3f94:	0d c0       	rjmp	.+26     	; 0x3fb0 <__udivmodsi4_ep>

00003f96 <__udivmodsi4_loop>:
    3f96:	aa 1f       	adc	r26, r26
    3f98:	bb 1f       	adc	r27, r27
    3f9a:	ee 1f       	adc	r30, r30
    3f9c:	ff 1f       	adc	r31, r31
    3f9e:	a2 17       	cp	r26, r18
    3fa0:	b3 07       	cpc	r27, r19
    3fa2:	e4 07       	cpc	r30, r20
    3fa4:	f5 07       	cpc	r31, r21
    3fa6:	20 f0       	brcs	.+8      	; 0x3fb0 <__udivmodsi4_ep>
    3fa8:	a2 1b       	sub	r26, r18
    3faa:	b3 0b       	sbc	r27, r19
    3fac:	e4 0b       	sbc	r30, r20
    3fae:	f5 0b       	sbc	r31, r21

00003fb0 <__udivmodsi4_ep>:
    3fb0:	66 1f       	adc	r22, r22
    3fb2:	77 1f       	adc	r23, r23
    3fb4:	88 1f       	adc	r24, r24
    3fb6:	99 1f       	adc	r25, r25
    3fb8:	1a 94       	dec	r1
    3fba:	69 f7       	brne	.-38     	; 0x3f96 <__udivmodsi4_loop>
    3fbc:	60 95       	com	r22
    3fbe:	70 95       	com	r23
    3fc0:	80 95       	com	r24
    3fc2:	90 95       	com	r25
    3fc4:	9b 01       	movw	r18, r22
    3fc6:	ac 01       	movw	r20, r24
    3fc8:	bd 01       	movw	r22, r26
    3fca:	cf 01       	movw	r24, r30
    3fcc:	08 95       	ret

00003fce <__divmodsi4>:
    3fce:	05 2e       	mov	r0, r21
    3fd0:	97 fb       	bst	r25, 7
    3fd2:	1e f4       	brtc	.+6      	; 0x3fda <__divmodsi4+0xc>
    3fd4:	00 94       	com	r0
    3fd6:	0e 94 fe 1f 	call	0x3ffc	; 0x3ffc <__negsi2>
    3fda:	57 fd       	sbrc	r21, 7
    3fdc:	07 d0       	rcall	.+14     	; 0x3fec <__divmodsi4_neg2>
    3fde:	0e 94 c5 1f 	call	0x3f8a	; 0x3f8a <__udivmodsi4>
    3fe2:	07 fc       	sbrc	r0, 7
    3fe4:	03 d0       	rcall	.+6      	; 0x3fec <__divmodsi4_neg2>
    3fe6:	4e f4       	brtc	.+18     	; 0x3ffa <__divmodsi4_exit>
    3fe8:	0c 94 fe 1f 	jmp	0x3ffc	; 0x3ffc <__negsi2>

00003fec <__divmodsi4_neg2>:
    3fec:	50 95       	com	r21
    3fee:	40 95       	com	r20
    3ff0:	30 95       	com	r19
    3ff2:	21 95       	neg	r18
    3ff4:	3f 4f       	sbci	r19, 0xFF	; 255
    3ff6:	4f 4f       	sbci	r20, 0xFF	; 255
    3ff8:	5f 4f       	sbci	r21, 0xFF	; 255

00003ffa <__divmodsi4_exit>:
    3ffa:	08 95       	ret

00003ffc <__negsi2>:
    3ffc:	90 95       	com	r25
    3ffe:	80 95       	com	r24
    4000:	70 95       	com	r23
    4002:	61 95       	neg	r22
    4004:	7f 4f       	sbci	r23, 0xFF	; 255
    4006:	8f 4f       	sbci	r24, 0xFF	; 255
    4008:	9f 4f       	sbci	r25, 0xFF	; 255
    400a:	08 95       	ret

0000400c <__tablejump2__>:
    400c:	ee 0f       	add	r30, r30
    400e:	ff 1f       	adc	r31, r31
    4010:	05 90       	lpm	r0, Z+
    4012:	f4 91       	lpm	r31, Z
    4014:	e0 2d       	mov	r30, r0
    4016:	09 94       	ijmp

00004018 <__muluhisi3>:
    4018:	0e 94 33 20 	call	0x4066	; 0x4066 <__umulhisi3>
    401c:	a5 9f       	mul	r26, r21
    401e:	90 0d       	add	r25, r0
    4020:	b4 9f       	mul	r27, r20
    4022:	90 0d       	add	r25, r0
    4024:	a4 9f       	mul	r26, r20
    4026:	80 0d       	add	r24, r0
    4028:	91 1d       	adc	r25, r1
    402a:	11 24       	eor	r1, r1
    402c:	08 95       	ret

0000402e <__mulshisi3>:
    402e:	b7 ff       	sbrs	r27, 7
    4030:	0c 94 0c 20 	jmp	0x4018	; 0x4018 <__muluhisi3>

00004034 <__mulohisi3>:
    4034:	0e 94 0c 20 	call	0x4018	; 0x4018 <__muluhisi3>
    4038:	82 1b       	sub	r24, r18
    403a:	93 0b       	sbc	r25, r19
    403c:	08 95       	ret

0000403e <__udivmodhi4>:
    403e:	aa 1b       	sub	r26, r26
    4040:	bb 1b       	sub	r27, r27
    4042:	51 e1       	ldi	r21, 0x11	; 17
    4044:	07 c0       	rjmp	.+14     	; 0x4054 <__udivmodhi4_ep>

00004046 <__udivmodhi4_loop>:
    4046:	aa 1f       	adc	r26, r26
    4048:	bb 1f       	adc	r27, r27
    404a:	a6 17       	cp	r26, r22
    404c:	b7 07       	cpc	r27, r23
    404e:	10 f0       	brcs	.+4      	; 0x4054 <__udivmodhi4_ep>
    4050:	a6 1b       	sub	r26, r22
    4052:	b7 0b       	sbc	r27, r23

00004054 <__udivmodhi4_ep>:
    4054:	88 1f       	adc	r24, r24
    4056:	99 1f       	adc	r25, r25
    4058:	5a 95       	dec	r21
    405a:	a9 f7       	brne	.-22     	; 0x4046 <__udivmodhi4_loop>
    405c:	80 95       	com	r24
    405e:	90 95       	com	r25
    4060:	bc 01       	movw	r22, r24
    4062:	cd 01       	movw	r24, r26
    4064:	08 95       	ret

00004066 <__umulhisi3>:
    4066:	a2 9f       	mul	r26, r18
    4068:	b0 01       	movw	r22, r0
    406a:	b3 9f       	mul	r27, r19
    406c:	c0 01       	movw	r24, r0
    406e:	a3 9f       	mul	r26, r19
    4070:	70 0d       	add	r23, r0
    4072:	81 1d       	adc	r24, r1
    4074:	11 24       	eor	r1, r1
    4076:	91 1d       	adc	r25, r1
    4078:	b2 9f       	mul	r27, r18
    407a:	70 0d       	add	r23, r0
    407c:	81 1d       	adc	r24, r1
    407e:	11 24       	eor	r1, r1
    4080:	91 1d       	adc	r25, r1
    4082:	08 95       	ret

00004084 <atol>:
    4084:	1f 93       	push	r17
    4086:	fc 01       	movw	r30, r24
    4088:	99 27       	eor	r25, r25
    408a:	88 27       	eor	r24, r24
    408c:	bc 01       	movw	r22, r24
    408e:	e8 94       	clt
    4090:	11 91       	ld	r17, Z+
    4092:	10 32       	cpi	r17, 0x20	; 32
    4094:	e9 f3       	breq	.-6      	; 0x4090 <atol+0xc>
    4096:	19 30       	cpi	r17, 0x09	; 9
    4098:	10 f0       	brcs	.+4      	; 0x409e <atol+0x1a>
    409a:	1e 30       	cpi	r17, 0x0E	; 14
    409c:	c8 f3       	brcs	.-14     	; 0x4090 <atol+0xc>
    409e:	1b 32       	cpi	r17, 0x2B	; 43
    40a0:	51 f0       	breq	.+20     	; 0x40b6 <atol+0x32>
    40a2:	1d 32       	cpi	r17, 0x2D	; 45
    40a4:	49 f4       	brne	.+18     	; 0x40b8 <atol+0x34>
    40a6:	68 94       	set
    40a8:	06 c0       	rjmp	.+12     	; 0x40b6 <atol+0x32>
    40aa:	0e 94 9e 20 	call	0x413c	; 0x413c <__mulsi_const_10>
    40ae:	61 0f       	add	r22, r17
    40b0:	71 1d       	adc	r23, r1
    40b2:	81 1d       	adc	r24, r1
    40b4:	91 1d       	adc	r25, r1
    40b6:	11 91       	ld	r17, Z+
    40b8:	10 53       	subi	r17, 0x30	; 48
    40ba:	1a 30       	cpi	r17, 0x0A	; 10
    40bc:	b0 f3       	brcs	.-20     	; 0x40aa <atol+0x26>
    40be:	3e f4       	brtc	.+14     	; 0x40ce <atol+0x4a>
    40c0:	90 95       	com	r25
    40c2:	80 95       	com	r24
    40c4:	70 95       	com	r23
    40c6:	61 95       	neg	r22
    40c8:	7f 4f       	sbci	r23, 0xFF	; 255
    40ca:	8f 4f       	sbci	r24, 0xFF	; 255
    40cc:	9f 4f       	sbci	r25, 0xFF	; 255
    40ce:	1f 91       	pop	r17
    40d0:	08 95       	ret

000040d2 <strcmp>:
    40d2:	fb 01       	movw	r30, r22
    40d4:	dc 01       	movw	r26, r24
    40d6:	8d 91       	ld	r24, X+
    40d8:	01 90       	ld	r0, Z+
    40da:	80 19       	sub	r24, r0
    40dc:	01 10       	cpse	r0, r1
    40de:	d9 f3       	breq	.-10     	; 0x40d6 <strcmp+0x4>
    40e0:	99 0b       	sbc	r25, r25
    40e2:	08 95       	ret

000040e4 <strcpy>:
    40e4:	fb 01       	movw	r30, r22
    40e6:	dc 01       	movw	r26, r24
    40e8:	01 90       	ld	r0, Z+
    40ea:	0d 92       	st	X+, r0
    40ec:	00 20       	and	r0, r0
    40ee:	e1 f7       	brne	.-8      	; 0x40e8 <strcpy+0x4>
    40f0:	08 95       	ret

000040f2 <strncpy>:
    40f2:	fb 01       	movw	r30, r22
    40f4:	dc 01       	movw	r26, r24
    40f6:	41 50       	subi	r20, 0x01	; 1
    40f8:	50 40       	sbci	r21, 0x00	; 0
    40fa:	48 f0       	brcs	.+18     	; 0x410e <strncpy+0x1c>
    40fc:	01 90       	ld	r0, Z+
    40fe:	0d 92       	st	X+, r0
    4100:	00 20       	and	r0, r0
    4102:	c9 f7       	brne	.-14     	; 0x40f6 <strncpy+0x4>
    4104:	01 c0       	rjmp	.+2      	; 0x4108 <strncpy+0x16>
    4106:	1d 92       	st	X+, r1
    4108:	41 50       	subi	r20, 0x01	; 1
    410a:	50 40       	sbci	r21, 0x00	; 0
    410c:	e0 f7       	brcc	.-8      	; 0x4106 <strncpy+0x14>
    410e:	08 95       	ret

00004110 <itoa>:
    4110:	45 32       	cpi	r20, 0x25	; 37
    4112:	51 05       	cpc	r21, r1
    4114:	20 f4       	brcc	.+8      	; 0x411e <itoa+0xe>
    4116:	42 30       	cpi	r20, 0x02	; 2
    4118:	10 f0       	brcs	.+4      	; 0x411e <itoa+0xe>
    411a:	0c 94 93 20 	jmp	0x4126	; 0x4126 <__itoa_ncheck>
    411e:	fb 01       	movw	r30, r22
    4120:	10 82       	st	Z, r1
    4122:	cb 01       	movw	r24, r22
    4124:	08 95       	ret

00004126 <__itoa_ncheck>:
    4126:	bb 27       	eor	r27, r27
    4128:	4a 30       	cpi	r20, 0x0A	; 10
    412a:	31 f4       	brne	.+12     	; 0x4138 <__itoa_ncheck+0x12>
    412c:	99 23       	and	r25, r25
    412e:	22 f4       	brpl	.+8      	; 0x4138 <__itoa_ncheck+0x12>
    4130:	bd e2       	ldi	r27, 0x2D	; 45
    4132:	90 95       	com	r25
    4134:	81 95       	neg	r24
    4136:	9f 4f       	sbci	r25, 0xFF	; 255
    4138:	0c 94 b4 20 	jmp	0x4168	; 0x4168 <__utoa_common>

0000413c <__mulsi_const_10>:
    413c:	59 2f       	mov	r21, r25
    413e:	48 2f       	mov	r20, r24
    4140:	37 2f       	mov	r19, r23
    4142:	26 2f       	mov	r18, r22
    4144:	66 0f       	add	r22, r22
    4146:	77 1f       	adc	r23, r23
    4148:	88 1f       	adc	r24, r24
    414a:	99 1f       	adc	r25, r25
    414c:	66 0f       	add	r22, r22
    414e:	77 1f       	adc	r23, r23
    4150:	88 1f       	adc	r24, r24
    4152:	99 1f       	adc	r25, r25
    4154:	62 0f       	add	r22, r18
    4156:	73 1f       	adc	r23, r19
    4158:	84 1f       	adc	r24, r20
    415a:	95 1f       	adc	r25, r21
    415c:	66 0f       	add	r22, r22
    415e:	77 1f       	adc	r23, r23
    4160:	88 1f       	adc	r24, r24
    4162:	99 1f       	adc	r25, r25
    4164:	08 95       	ret

00004166 <__utoa_ncheck>:
    4166:	bb 27       	eor	r27, r27

00004168 <__utoa_common>:
    4168:	fb 01       	movw	r30, r22
    416a:	55 27       	eor	r21, r21
    416c:	aa 27       	eor	r26, r26
    416e:	88 0f       	add	r24, r24
    4170:	99 1f       	adc	r25, r25
    4172:	aa 1f       	adc	r26, r26
    4174:	a4 17       	cp	r26, r20
    4176:	10 f0       	brcs	.+4      	; 0x417c <__utoa_common+0x14>
    4178:	a4 1b       	sub	r26, r20
    417a:	83 95       	inc	r24
    417c:	50 51       	subi	r21, 0x10	; 16
    417e:	b9 f7       	brne	.-18     	; 0x416e <__utoa_common+0x6>
    4180:	a0 5d       	subi	r26, 0xD0	; 208
    4182:	aa 33       	cpi	r26, 0x3A	; 58
    4184:	08 f0       	brcs	.+2      	; 0x4188 <__utoa_common+0x20>
    4186:	a9 5d       	subi	r26, 0xD9	; 217
    4188:	a1 93       	st	Z+, r26
    418a:	00 97       	sbiw	r24, 0x00	; 0
    418c:	79 f7       	brne	.-34     	; 0x416c <__utoa_common+0x4>
    418e:	b1 11       	cpse	r27, r1
    4190:	b1 93       	st	Z+, r27
    4192:	11 92       	st	Z+, r1
    4194:	cb 01       	movw	r24, r22
    4196:	0c 94 d8 22 	jmp	0x45b0	; 0x45b0 <strrev>

0000419a <sprintf>:
    419a:	ae e0       	ldi	r26, 0x0E	; 14
    419c:	b0 e0       	ldi	r27, 0x00	; 0
    419e:	e3 ed       	ldi	r30, 0xD3	; 211
    41a0:	f0 e2       	ldi	r31, 0x20	; 32
    41a2:	0c 94 8c 23 	jmp	0x4718	; 0x4718 <__prologue_saves__+0x1c>
    41a6:	0d 89       	ldd	r16, Y+21	; 0x15
    41a8:	1e 89       	ldd	r17, Y+22	; 0x16
    41aa:	86 e0       	ldi	r24, 0x06	; 6
    41ac:	8c 83       	std	Y+4, r24	; 0x04
    41ae:	1a 83       	std	Y+2, r17	; 0x02
    41b0:	09 83       	std	Y+1, r16	; 0x01
    41b2:	8f ef       	ldi	r24, 0xFF	; 255
    41b4:	9f e7       	ldi	r25, 0x7F	; 127
    41b6:	9e 83       	std	Y+6, r25	; 0x06
    41b8:	8d 83       	std	Y+5, r24	; 0x05
    41ba:	ae 01       	movw	r20, r28
    41bc:	47 5e       	subi	r20, 0xE7	; 231
    41be:	5f 4f       	sbci	r21, 0xFF	; 255
    41c0:	6f 89       	ldd	r22, Y+23	; 0x17
    41c2:	78 8d       	ldd	r23, Y+24	; 0x18
    41c4:	ce 01       	movw	r24, r28
    41c6:	01 96       	adiw	r24, 0x01	; 1
    41c8:	0e 94 f0 20 	call	0x41e0	; 0x41e0 <vfprintf>
    41cc:	2f 81       	ldd	r18, Y+7	; 0x07
    41ce:	38 85       	ldd	r19, Y+8	; 0x08
    41d0:	f8 01       	movw	r30, r16
    41d2:	e2 0f       	add	r30, r18
    41d4:	f3 1f       	adc	r31, r19
    41d6:	10 82       	st	Z, r1
    41d8:	2e 96       	adiw	r28, 0x0e	; 14
    41da:	e4 e0       	ldi	r30, 0x04	; 4
    41dc:	0c 94 a8 23 	jmp	0x4750	; 0x4750 <__epilogue_restores__+0x1c>

000041e0 <vfprintf>:
    41e0:	ac e0       	ldi	r26, 0x0C	; 12
    41e2:	b0 e0       	ldi	r27, 0x00	; 0
    41e4:	e6 ef       	ldi	r30, 0xF6	; 246
    41e6:	f0 e2       	ldi	r31, 0x20	; 32
    41e8:	0c 94 7e 23 	jmp	0x46fc	; 0x46fc <__prologue_saves__>
    41ec:	7c 01       	movw	r14, r24
    41ee:	6b 01       	movw	r12, r22
    41f0:	8a 01       	movw	r16, r20
    41f2:	fc 01       	movw	r30, r24
    41f4:	17 82       	std	Z+7, r1	; 0x07
    41f6:	16 82       	std	Z+6, r1	; 0x06
    41f8:	83 81       	ldd	r24, Z+3	; 0x03
    41fa:	81 ff       	sbrs	r24, 1
    41fc:	bd c1       	rjmp	.+890    	; 0x4578 <vfprintf+0x398>
    41fe:	ce 01       	movw	r24, r28
    4200:	01 96       	adiw	r24, 0x01	; 1
    4202:	4c 01       	movw	r8, r24
    4204:	f7 01       	movw	r30, r14
    4206:	93 81       	ldd	r25, Z+3	; 0x03
    4208:	f6 01       	movw	r30, r12
    420a:	93 fd       	sbrc	r25, 3
    420c:	85 91       	lpm	r24, Z+
    420e:	93 ff       	sbrs	r25, 3
    4210:	81 91       	ld	r24, Z+
    4212:	6f 01       	movw	r12, r30
    4214:	88 23       	and	r24, r24
    4216:	09 f4       	brne	.+2      	; 0x421a <vfprintf+0x3a>
    4218:	ab c1       	rjmp	.+854    	; 0x4570 <vfprintf+0x390>
    421a:	85 32       	cpi	r24, 0x25	; 37
    421c:	39 f4       	brne	.+14     	; 0x422c <vfprintf+0x4c>
    421e:	93 fd       	sbrc	r25, 3
    4220:	85 91       	lpm	r24, Z+
    4222:	93 ff       	sbrs	r25, 3
    4224:	81 91       	ld	r24, Z+
    4226:	6f 01       	movw	r12, r30
    4228:	85 32       	cpi	r24, 0x25	; 37
    422a:	29 f4       	brne	.+10     	; 0x4236 <vfprintf+0x56>
    422c:	b7 01       	movw	r22, r14
    422e:	90 e0       	ldi	r25, 0x00	; 0
    4230:	0e 94 e8 22 	call	0x45d0	; 0x45d0 <fputc>
    4234:	e7 cf       	rjmp	.-50     	; 0x4204 <vfprintf+0x24>
    4236:	51 2c       	mov	r5, r1
    4238:	31 2c       	mov	r3, r1
    423a:	20 e0       	ldi	r18, 0x00	; 0
    423c:	20 32       	cpi	r18, 0x20	; 32
    423e:	a0 f4       	brcc	.+40     	; 0x4268 <vfprintf+0x88>
    4240:	8b 32       	cpi	r24, 0x2B	; 43
    4242:	69 f0       	breq	.+26     	; 0x425e <vfprintf+0x7e>
    4244:	30 f4       	brcc	.+12     	; 0x4252 <vfprintf+0x72>
    4246:	80 32       	cpi	r24, 0x20	; 32
    4248:	59 f0       	breq	.+22     	; 0x4260 <vfprintf+0x80>
    424a:	83 32       	cpi	r24, 0x23	; 35
    424c:	69 f4       	brne	.+26     	; 0x4268 <vfprintf+0x88>
    424e:	20 61       	ori	r18, 0x10	; 16
    4250:	2c c0       	rjmp	.+88     	; 0x42aa <vfprintf+0xca>
    4252:	8d 32       	cpi	r24, 0x2D	; 45
    4254:	39 f0       	breq	.+14     	; 0x4264 <vfprintf+0x84>
    4256:	80 33       	cpi	r24, 0x30	; 48
    4258:	39 f4       	brne	.+14     	; 0x4268 <vfprintf+0x88>
    425a:	21 60       	ori	r18, 0x01	; 1
    425c:	26 c0       	rjmp	.+76     	; 0x42aa <vfprintf+0xca>
    425e:	22 60       	ori	r18, 0x02	; 2
    4260:	24 60       	ori	r18, 0x04	; 4
    4262:	23 c0       	rjmp	.+70     	; 0x42aa <vfprintf+0xca>
    4264:	28 60       	ori	r18, 0x08	; 8
    4266:	21 c0       	rjmp	.+66     	; 0x42aa <vfprintf+0xca>
    4268:	27 fd       	sbrc	r18, 7
    426a:	27 c0       	rjmp	.+78     	; 0x42ba <vfprintf+0xda>
    426c:	30 ed       	ldi	r19, 0xD0	; 208
    426e:	38 0f       	add	r19, r24
    4270:	3a 30       	cpi	r19, 0x0A	; 10
    4272:	78 f4       	brcc	.+30     	; 0x4292 <vfprintf+0xb2>
    4274:	26 ff       	sbrs	r18, 6
    4276:	06 c0       	rjmp	.+12     	; 0x4284 <vfprintf+0xa4>
    4278:	fa e0       	ldi	r31, 0x0A	; 10
    427a:	5f 9e       	mul	r5, r31
    427c:	30 0d       	add	r19, r0
    427e:	11 24       	eor	r1, r1
    4280:	53 2e       	mov	r5, r19
    4282:	13 c0       	rjmp	.+38     	; 0x42aa <vfprintf+0xca>
    4284:	8a e0       	ldi	r24, 0x0A	; 10
    4286:	38 9e       	mul	r3, r24
    4288:	30 0d       	add	r19, r0
    428a:	11 24       	eor	r1, r1
    428c:	33 2e       	mov	r3, r19
    428e:	20 62       	ori	r18, 0x20	; 32
    4290:	0c c0       	rjmp	.+24     	; 0x42aa <vfprintf+0xca>
    4292:	8e 32       	cpi	r24, 0x2E	; 46
    4294:	21 f4       	brne	.+8      	; 0x429e <vfprintf+0xbe>
    4296:	26 fd       	sbrc	r18, 6
    4298:	6b c1       	rjmp	.+726    	; 0x4570 <vfprintf+0x390>
    429a:	20 64       	ori	r18, 0x40	; 64
    429c:	06 c0       	rjmp	.+12     	; 0x42aa <vfprintf+0xca>
    429e:	8c 36       	cpi	r24, 0x6C	; 108
    42a0:	11 f4       	brne	.+4      	; 0x42a6 <vfprintf+0xc6>
    42a2:	20 68       	ori	r18, 0x80	; 128
    42a4:	02 c0       	rjmp	.+4      	; 0x42aa <vfprintf+0xca>
    42a6:	88 36       	cpi	r24, 0x68	; 104
    42a8:	41 f4       	brne	.+16     	; 0x42ba <vfprintf+0xda>
    42aa:	f6 01       	movw	r30, r12
    42ac:	93 fd       	sbrc	r25, 3
    42ae:	85 91       	lpm	r24, Z+
    42b0:	93 ff       	sbrs	r25, 3
    42b2:	81 91       	ld	r24, Z+
    42b4:	6f 01       	movw	r12, r30
    42b6:	81 11       	cpse	r24, r1
    42b8:	c1 cf       	rjmp	.-126    	; 0x423c <vfprintf+0x5c>
    42ba:	98 2f       	mov	r25, r24
    42bc:	9f 7d       	andi	r25, 0xDF	; 223
    42be:	95 54       	subi	r25, 0x45	; 69
    42c0:	93 30       	cpi	r25, 0x03	; 3
    42c2:	28 f4       	brcc	.+10     	; 0x42ce <vfprintf+0xee>
    42c4:	0c 5f       	subi	r16, 0xFC	; 252
    42c6:	1f 4f       	sbci	r17, 0xFF	; 255
    42c8:	ff e3       	ldi	r31, 0x3F	; 63
    42ca:	f9 83       	std	Y+1, r31	; 0x01
    42cc:	0d c0       	rjmp	.+26     	; 0x42e8 <vfprintf+0x108>
    42ce:	83 36       	cpi	r24, 0x63	; 99
    42d0:	31 f0       	breq	.+12     	; 0x42de <vfprintf+0xfe>
    42d2:	83 37       	cpi	r24, 0x73	; 115
    42d4:	71 f0       	breq	.+28     	; 0x42f2 <vfprintf+0x112>
    42d6:	83 35       	cpi	r24, 0x53	; 83
    42d8:	09 f0       	breq	.+2      	; 0x42dc <vfprintf+0xfc>
    42da:	5b c0       	rjmp	.+182    	; 0x4392 <vfprintf+0x1b2>
    42dc:	22 c0       	rjmp	.+68     	; 0x4322 <vfprintf+0x142>
    42de:	f8 01       	movw	r30, r16
    42e0:	80 81       	ld	r24, Z
    42e2:	89 83       	std	Y+1, r24	; 0x01
    42e4:	0e 5f       	subi	r16, 0xFE	; 254
    42e6:	1f 4f       	sbci	r17, 0xFF	; 255
    42e8:	44 24       	eor	r4, r4
    42ea:	43 94       	inc	r4
    42ec:	51 2c       	mov	r5, r1
    42ee:	54 01       	movw	r10, r8
    42f0:	15 c0       	rjmp	.+42     	; 0x431c <vfprintf+0x13c>
    42f2:	38 01       	movw	r6, r16
    42f4:	f2 e0       	ldi	r31, 0x02	; 2
    42f6:	6f 0e       	add	r6, r31
    42f8:	71 1c       	adc	r7, r1
    42fa:	f8 01       	movw	r30, r16
    42fc:	a0 80       	ld	r10, Z
    42fe:	b1 80       	ldd	r11, Z+1	; 0x01
    4300:	26 ff       	sbrs	r18, 6
    4302:	03 c0       	rjmp	.+6      	; 0x430a <vfprintf+0x12a>
    4304:	65 2d       	mov	r22, r5
    4306:	70 e0       	ldi	r23, 0x00	; 0
    4308:	02 c0       	rjmp	.+4      	; 0x430e <vfprintf+0x12e>
    430a:	6f ef       	ldi	r22, 0xFF	; 255
    430c:	7f ef       	ldi	r23, 0xFF	; 255
    430e:	c5 01       	movw	r24, r10
    4310:	2c 87       	std	Y+12, r18	; 0x0c
    4312:	0e 94 cd 22 	call	0x459a	; 0x459a <strnlen>
    4316:	2c 01       	movw	r4, r24
    4318:	83 01       	movw	r16, r6
    431a:	2c 85       	ldd	r18, Y+12	; 0x0c
    431c:	2f 77       	andi	r18, 0x7F	; 127
    431e:	22 2e       	mov	r2, r18
    4320:	17 c0       	rjmp	.+46     	; 0x4350 <vfprintf+0x170>
    4322:	38 01       	movw	r6, r16
    4324:	f2 e0       	ldi	r31, 0x02	; 2
    4326:	6f 0e       	add	r6, r31
    4328:	71 1c       	adc	r7, r1
    432a:	f8 01       	movw	r30, r16
    432c:	a0 80       	ld	r10, Z
    432e:	b1 80       	ldd	r11, Z+1	; 0x01
    4330:	26 ff       	sbrs	r18, 6
    4332:	03 c0       	rjmp	.+6      	; 0x433a <vfprintf+0x15a>
    4334:	65 2d       	mov	r22, r5
    4336:	70 e0       	ldi	r23, 0x00	; 0
    4338:	02 c0       	rjmp	.+4      	; 0x433e <vfprintf+0x15e>
    433a:	6f ef       	ldi	r22, 0xFF	; 255
    433c:	7f ef       	ldi	r23, 0xFF	; 255
    433e:	c5 01       	movw	r24, r10
    4340:	2c 87       	std	Y+12, r18	; 0x0c
    4342:	0e 94 c2 22 	call	0x4584	; 0x4584 <strnlen_P>
    4346:	2c 01       	movw	r4, r24
    4348:	2c 85       	ldd	r18, Y+12	; 0x0c
    434a:	20 68       	ori	r18, 0x80	; 128
    434c:	22 2e       	mov	r2, r18
    434e:	83 01       	movw	r16, r6
    4350:	23 fc       	sbrc	r2, 3
    4352:	1b c0       	rjmp	.+54     	; 0x438a <vfprintf+0x1aa>
    4354:	83 2d       	mov	r24, r3
    4356:	90 e0       	ldi	r25, 0x00	; 0
    4358:	48 16       	cp	r4, r24
    435a:	59 06       	cpc	r5, r25
    435c:	b0 f4       	brcc	.+44     	; 0x438a <vfprintf+0x1aa>
    435e:	b7 01       	movw	r22, r14
    4360:	80 e2       	ldi	r24, 0x20	; 32
    4362:	90 e0       	ldi	r25, 0x00	; 0
    4364:	0e 94 e8 22 	call	0x45d0	; 0x45d0 <fputc>
    4368:	3a 94       	dec	r3
    436a:	f4 cf       	rjmp	.-24     	; 0x4354 <vfprintf+0x174>
    436c:	f5 01       	movw	r30, r10
    436e:	27 fc       	sbrc	r2, 7
    4370:	85 91       	lpm	r24, Z+
    4372:	27 fe       	sbrs	r2, 7
    4374:	81 91       	ld	r24, Z+
    4376:	5f 01       	movw	r10, r30
    4378:	b7 01       	movw	r22, r14
    437a:	90 e0       	ldi	r25, 0x00	; 0
    437c:	0e 94 e8 22 	call	0x45d0	; 0x45d0 <fputc>
    4380:	31 10       	cpse	r3, r1
    4382:	3a 94       	dec	r3
    4384:	f1 e0       	ldi	r31, 0x01	; 1
    4386:	4f 1a       	sub	r4, r31
    4388:	51 08       	sbc	r5, r1
    438a:	41 14       	cp	r4, r1
    438c:	51 04       	cpc	r5, r1
    438e:	71 f7       	brne	.-36     	; 0x436c <vfprintf+0x18c>
    4390:	e5 c0       	rjmp	.+458    	; 0x455c <vfprintf+0x37c>
    4392:	84 36       	cpi	r24, 0x64	; 100
    4394:	11 f0       	breq	.+4      	; 0x439a <vfprintf+0x1ba>
    4396:	89 36       	cpi	r24, 0x69	; 105
    4398:	39 f5       	brne	.+78     	; 0x43e8 <vfprintf+0x208>
    439a:	f8 01       	movw	r30, r16
    439c:	27 ff       	sbrs	r18, 7
    439e:	07 c0       	rjmp	.+14     	; 0x43ae <vfprintf+0x1ce>
    43a0:	60 81       	ld	r22, Z
    43a2:	71 81       	ldd	r23, Z+1	; 0x01
    43a4:	82 81       	ldd	r24, Z+2	; 0x02
    43a6:	93 81       	ldd	r25, Z+3	; 0x03
    43a8:	0c 5f       	subi	r16, 0xFC	; 252
    43aa:	1f 4f       	sbci	r17, 0xFF	; 255
    43ac:	08 c0       	rjmp	.+16     	; 0x43be <vfprintf+0x1de>
    43ae:	60 81       	ld	r22, Z
    43b0:	71 81       	ldd	r23, Z+1	; 0x01
    43b2:	07 2e       	mov	r0, r23
    43b4:	00 0c       	add	r0, r0
    43b6:	88 0b       	sbc	r24, r24
    43b8:	99 0b       	sbc	r25, r25
    43ba:	0e 5f       	subi	r16, 0xFE	; 254
    43bc:	1f 4f       	sbci	r17, 0xFF	; 255
    43be:	2f 76       	andi	r18, 0x6F	; 111
    43c0:	72 2e       	mov	r7, r18
    43c2:	97 ff       	sbrs	r25, 7
    43c4:	09 c0       	rjmp	.+18     	; 0x43d8 <vfprintf+0x1f8>
    43c6:	90 95       	com	r25
    43c8:	80 95       	com	r24
    43ca:	70 95       	com	r23
    43cc:	61 95       	neg	r22
    43ce:	7f 4f       	sbci	r23, 0xFF	; 255
    43d0:	8f 4f       	sbci	r24, 0xFF	; 255
    43d2:	9f 4f       	sbci	r25, 0xFF	; 255
    43d4:	20 68       	ori	r18, 0x80	; 128
    43d6:	72 2e       	mov	r7, r18
    43d8:	2a e0       	ldi	r18, 0x0A	; 10
    43da:	30 e0       	ldi	r19, 0x00	; 0
    43dc:	a4 01       	movw	r20, r8
    43de:	0e 94 20 23 	call	0x4640	; 0x4640 <__ultoa_invert>
    43e2:	a8 2e       	mov	r10, r24
    43e4:	a8 18       	sub	r10, r8
    43e6:	44 c0       	rjmp	.+136    	; 0x4470 <vfprintf+0x290>
    43e8:	85 37       	cpi	r24, 0x75	; 117
    43ea:	29 f4       	brne	.+10     	; 0x43f6 <vfprintf+0x216>
    43ec:	2f 7e       	andi	r18, 0xEF	; 239
    43ee:	b2 2e       	mov	r11, r18
    43f0:	2a e0       	ldi	r18, 0x0A	; 10
    43f2:	30 e0       	ldi	r19, 0x00	; 0
    43f4:	25 c0       	rjmp	.+74     	; 0x4440 <vfprintf+0x260>
    43f6:	f2 2f       	mov	r31, r18
    43f8:	f9 7f       	andi	r31, 0xF9	; 249
    43fa:	bf 2e       	mov	r11, r31
    43fc:	8f 36       	cpi	r24, 0x6F	; 111
    43fe:	c1 f0       	breq	.+48     	; 0x4430 <vfprintf+0x250>
    4400:	18 f4       	brcc	.+6      	; 0x4408 <vfprintf+0x228>
    4402:	88 35       	cpi	r24, 0x58	; 88
    4404:	79 f0       	breq	.+30     	; 0x4424 <vfprintf+0x244>
    4406:	b4 c0       	rjmp	.+360    	; 0x4570 <vfprintf+0x390>
    4408:	80 37       	cpi	r24, 0x70	; 112
    440a:	19 f0       	breq	.+6      	; 0x4412 <vfprintf+0x232>
    440c:	88 37       	cpi	r24, 0x78	; 120
    440e:	21 f0       	breq	.+8      	; 0x4418 <vfprintf+0x238>
    4410:	af c0       	rjmp	.+350    	; 0x4570 <vfprintf+0x390>
    4412:	2f 2f       	mov	r18, r31
    4414:	20 61       	ori	r18, 0x10	; 16
    4416:	b2 2e       	mov	r11, r18
    4418:	b4 fe       	sbrs	r11, 4
    441a:	0d c0       	rjmp	.+26     	; 0x4436 <vfprintf+0x256>
    441c:	8b 2d       	mov	r24, r11
    441e:	84 60       	ori	r24, 0x04	; 4
    4420:	b8 2e       	mov	r11, r24
    4422:	09 c0       	rjmp	.+18     	; 0x4436 <vfprintf+0x256>
    4424:	24 ff       	sbrs	r18, 4
    4426:	0a c0       	rjmp	.+20     	; 0x443c <vfprintf+0x25c>
    4428:	9f 2f       	mov	r25, r31
    442a:	96 60       	ori	r25, 0x06	; 6
    442c:	b9 2e       	mov	r11, r25
    442e:	06 c0       	rjmp	.+12     	; 0x443c <vfprintf+0x25c>
    4430:	28 e0       	ldi	r18, 0x08	; 8
    4432:	30 e0       	ldi	r19, 0x00	; 0
    4434:	05 c0       	rjmp	.+10     	; 0x4440 <vfprintf+0x260>
    4436:	20 e1       	ldi	r18, 0x10	; 16
    4438:	30 e0       	ldi	r19, 0x00	; 0
    443a:	02 c0       	rjmp	.+4      	; 0x4440 <vfprintf+0x260>
    443c:	20 e1       	ldi	r18, 0x10	; 16
    443e:	32 e0       	ldi	r19, 0x02	; 2
    4440:	f8 01       	movw	r30, r16
    4442:	b7 fe       	sbrs	r11, 7
    4444:	07 c0       	rjmp	.+14     	; 0x4454 <vfprintf+0x274>
    4446:	60 81       	ld	r22, Z
    4448:	71 81       	ldd	r23, Z+1	; 0x01
    444a:	82 81       	ldd	r24, Z+2	; 0x02
    444c:	93 81       	ldd	r25, Z+3	; 0x03
    444e:	0c 5f       	subi	r16, 0xFC	; 252
    4450:	1f 4f       	sbci	r17, 0xFF	; 255
    4452:	06 c0       	rjmp	.+12     	; 0x4460 <vfprintf+0x280>
    4454:	60 81       	ld	r22, Z
    4456:	71 81       	ldd	r23, Z+1	; 0x01
    4458:	80 e0       	ldi	r24, 0x00	; 0
    445a:	90 e0       	ldi	r25, 0x00	; 0
    445c:	0e 5f       	subi	r16, 0xFE	; 254
    445e:	1f 4f       	sbci	r17, 0xFF	; 255
    4460:	a4 01       	movw	r20, r8
    4462:	0e 94 20 23 	call	0x4640	; 0x4640 <__ultoa_invert>
    4466:	a8 2e       	mov	r10, r24
    4468:	a8 18       	sub	r10, r8
    446a:	fb 2d       	mov	r31, r11
    446c:	ff 77       	andi	r31, 0x7F	; 127
    446e:	7f 2e       	mov	r7, r31
    4470:	76 fe       	sbrs	r7, 6
    4472:	0b c0       	rjmp	.+22     	; 0x448a <vfprintf+0x2aa>
    4474:	37 2d       	mov	r19, r7
    4476:	3e 7f       	andi	r19, 0xFE	; 254
    4478:	a5 14       	cp	r10, r5
    447a:	50 f4       	brcc	.+20     	; 0x4490 <vfprintf+0x2b0>
    447c:	74 fe       	sbrs	r7, 4
    447e:	0a c0       	rjmp	.+20     	; 0x4494 <vfprintf+0x2b4>
    4480:	72 fc       	sbrc	r7, 2
    4482:	08 c0       	rjmp	.+16     	; 0x4494 <vfprintf+0x2b4>
    4484:	37 2d       	mov	r19, r7
    4486:	3e 7e       	andi	r19, 0xEE	; 238
    4488:	05 c0       	rjmp	.+10     	; 0x4494 <vfprintf+0x2b4>
    448a:	ba 2c       	mov	r11, r10
    448c:	37 2d       	mov	r19, r7
    448e:	03 c0       	rjmp	.+6      	; 0x4496 <vfprintf+0x2b6>
    4490:	ba 2c       	mov	r11, r10
    4492:	01 c0       	rjmp	.+2      	; 0x4496 <vfprintf+0x2b6>
    4494:	b5 2c       	mov	r11, r5
    4496:	34 ff       	sbrs	r19, 4
    4498:	0d c0       	rjmp	.+26     	; 0x44b4 <vfprintf+0x2d4>
    449a:	fe 01       	movw	r30, r28
    449c:	ea 0d       	add	r30, r10
    449e:	f1 1d       	adc	r31, r1
    44a0:	80 81       	ld	r24, Z
    44a2:	80 33       	cpi	r24, 0x30	; 48
    44a4:	11 f4       	brne	.+4      	; 0x44aa <vfprintf+0x2ca>
    44a6:	39 7e       	andi	r19, 0xE9	; 233
    44a8:	09 c0       	rjmp	.+18     	; 0x44bc <vfprintf+0x2dc>
    44aa:	32 ff       	sbrs	r19, 2
    44ac:	06 c0       	rjmp	.+12     	; 0x44ba <vfprintf+0x2da>
    44ae:	b3 94       	inc	r11
    44b0:	b3 94       	inc	r11
    44b2:	04 c0       	rjmp	.+8      	; 0x44bc <vfprintf+0x2dc>
    44b4:	83 2f       	mov	r24, r19
    44b6:	86 78       	andi	r24, 0x86	; 134
    44b8:	09 f0       	breq	.+2      	; 0x44bc <vfprintf+0x2dc>
    44ba:	b3 94       	inc	r11
    44bc:	33 fd       	sbrc	r19, 3
    44be:	13 c0       	rjmp	.+38     	; 0x44e6 <vfprintf+0x306>
    44c0:	30 ff       	sbrs	r19, 0
    44c2:	06 c0       	rjmp	.+12     	; 0x44d0 <vfprintf+0x2f0>
    44c4:	5a 2c       	mov	r5, r10
    44c6:	b3 14       	cp	r11, r3
    44c8:	18 f4       	brcc	.+6      	; 0x44d0 <vfprintf+0x2f0>
    44ca:	53 0c       	add	r5, r3
    44cc:	5b 18       	sub	r5, r11
    44ce:	b3 2c       	mov	r11, r3
    44d0:	b3 14       	cp	r11, r3
    44d2:	68 f4       	brcc	.+26     	; 0x44ee <vfprintf+0x30e>
    44d4:	b7 01       	movw	r22, r14
    44d6:	80 e2       	ldi	r24, 0x20	; 32
    44d8:	90 e0       	ldi	r25, 0x00	; 0
    44da:	3c 87       	std	Y+12, r19	; 0x0c
    44dc:	0e 94 e8 22 	call	0x45d0	; 0x45d0 <fputc>
    44e0:	b3 94       	inc	r11
    44e2:	3c 85       	ldd	r19, Y+12	; 0x0c
    44e4:	f5 cf       	rjmp	.-22     	; 0x44d0 <vfprintf+0x2f0>
    44e6:	b3 14       	cp	r11, r3
    44e8:	10 f4       	brcc	.+4      	; 0x44ee <vfprintf+0x30e>
    44ea:	3b 18       	sub	r3, r11
    44ec:	01 c0       	rjmp	.+2      	; 0x44f0 <vfprintf+0x310>
    44ee:	31 2c       	mov	r3, r1
    44f0:	34 ff       	sbrs	r19, 4
    44f2:	12 c0       	rjmp	.+36     	; 0x4518 <vfprintf+0x338>
    44f4:	b7 01       	movw	r22, r14
    44f6:	80 e3       	ldi	r24, 0x30	; 48
    44f8:	90 e0       	ldi	r25, 0x00	; 0
    44fa:	3c 87       	std	Y+12, r19	; 0x0c
    44fc:	0e 94 e8 22 	call	0x45d0	; 0x45d0 <fputc>
    4500:	3c 85       	ldd	r19, Y+12	; 0x0c
    4502:	32 ff       	sbrs	r19, 2
    4504:	17 c0       	rjmp	.+46     	; 0x4534 <vfprintf+0x354>
    4506:	31 fd       	sbrc	r19, 1
    4508:	03 c0       	rjmp	.+6      	; 0x4510 <vfprintf+0x330>
    450a:	88 e7       	ldi	r24, 0x78	; 120
    450c:	90 e0       	ldi	r25, 0x00	; 0
    450e:	02 c0       	rjmp	.+4      	; 0x4514 <vfprintf+0x334>
    4510:	88 e5       	ldi	r24, 0x58	; 88
    4512:	90 e0       	ldi	r25, 0x00	; 0
    4514:	b7 01       	movw	r22, r14
    4516:	0c c0       	rjmp	.+24     	; 0x4530 <vfprintf+0x350>
    4518:	83 2f       	mov	r24, r19
    451a:	86 78       	andi	r24, 0x86	; 134
    451c:	59 f0       	breq	.+22     	; 0x4534 <vfprintf+0x354>
    451e:	31 ff       	sbrs	r19, 1
    4520:	02 c0       	rjmp	.+4      	; 0x4526 <vfprintf+0x346>
    4522:	8b e2       	ldi	r24, 0x2B	; 43
    4524:	01 c0       	rjmp	.+2      	; 0x4528 <vfprintf+0x348>
    4526:	80 e2       	ldi	r24, 0x20	; 32
    4528:	37 fd       	sbrc	r19, 7
    452a:	8d e2       	ldi	r24, 0x2D	; 45
    452c:	b7 01       	movw	r22, r14
    452e:	90 e0       	ldi	r25, 0x00	; 0
    4530:	0e 94 e8 22 	call	0x45d0	; 0x45d0 <fputc>
    4534:	a5 14       	cp	r10, r5
    4536:	38 f4       	brcc	.+14     	; 0x4546 <vfprintf+0x366>
    4538:	b7 01       	movw	r22, r14
    453a:	80 e3       	ldi	r24, 0x30	; 48
    453c:	90 e0       	ldi	r25, 0x00	; 0
    453e:	0e 94 e8 22 	call	0x45d0	; 0x45d0 <fputc>
    4542:	5a 94       	dec	r5
    4544:	f7 cf       	rjmp	.-18     	; 0x4534 <vfprintf+0x354>
    4546:	aa 94       	dec	r10
    4548:	f4 01       	movw	r30, r8
    454a:	ea 0d       	add	r30, r10
    454c:	f1 1d       	adc	r31, r1
    454e:	80 81       	ld	r24, Z
    4550:	b7 01       	movw	r22, r14
    4552:	90 e0       	ldi	r25, 0x00	; 0
    4554:	0e 94 e8 22 	call	0x45d0	; 0x45d0 <fputc>
    4558:	a1 10       	cpse	r10, r1
    455a:	f5 cf       	rjmp	.-22     	; 0x4546 <vfprintf+0x366>
    455c:	33 20       	and	r3, r3
    455e:	09 f4       	brne	.+2      	; 0x4562 <vfprintf+0x382>
    4560:	51 ce       	rjmp	.-862    	; 0x4204 <vfprintf+0x24>
    4562:	b7 01       	movw	r22, r14
    4564:	80 e2       	ldi	r24, 0x20	; 32
    4566:	90 e0       	ldi	r25, 0x00	; 0
    4568:	0e 94 e8 22 	call	0x45d0	; 0x45d0 <fputc>
    456c:	3a 94       	dec	r3
    456e:	f6 cf       	rjmp	.-20     	; 0x455c <vfprintf+0x37c>
    4570:	f7 01       	movw	r30, r14
    4572:	86 81       	ldd	r24, Z+6	; 0x06
    4574:	97 81       	ldd	r25, Z+7	; 0x07
    4576:	02 c0       	rjmp	.+4      	; 0x457c <vfprintf+0x39c>
    4578:	8f ef       	ldi	r24, 0xFF	; 255
    457a:	9f ef       	ldi	r25, 0xFF	; 255
    457c:	2c 96       	adiw	r28, 0x0c	; 12
    457e:	e2 e1       	ldi	r30, 0x12	; 18
    4580:	0c 94 9a 23 	jmp	0x4734	; 0x4734 <__epilogue_restores__>

00004584 <strnlen_P>:
    4584:	fc 01       	movw	r30, r24
    4586:	05 90       	lpm	r0, Z+
    4588:	61 50       	subi	r22, 0x01	; 1
    458a:	70 40       	sbci	r23, 0x00	; 0
    458c:	01 10       	cpse	r0, r1
    458e:	d8 f7       	brcc	.-10     	; 0x4586 <strnlen_P+0x2>
    4590:	80 95       	com	r24
    4592:	90 95       	com	r25
    4594:	8e 0f       	add	r24, r30
    4596:	9f 1f       	adc	r25, r31
    4598:	08 95       	ret

0000459a <strnlen>:
    459a:	fc 01       	movw	r30, r24
    459c:	61 50       	subi	r22, 0x01	; 1
    459e:	70 40       	sbci	r23, 0x00	; 0
    45a0:	01 90       	ld	r0, Z+
    45a2:	01 10       	cpse	r0, r1
    45a4:	d8 f7       	brcc	.-10     	; 0x459c <strnlen+0x2>
    45a6:	80 95       	com	r24
    45a8:	90 95       	com	r25
    45aa:	8e 0f       	add	r24, r30
    45ac:	9f 1f       	adc	r25, r31
    45ae:	08 95       	ret

000045b0 <strrev>:
    45b0:	dc 01       	movw	r26, r24
    45b2:	fc 01       	movw	r30, r24
    45b4:	67 2f       	mov	r22, r23
    45b6:	71 91       	ld	r23, Z+
    45b8:	77 23       	and	r23, r23
    45ba:	e1 f7       	brne	.-8      	; 0x45b4 <strrev+0x4>
    45bc:	32 97       	sbiw	r30, 0x02	; 2
    45be:	04 c0       	rjmp	.+8      	; 0x45c8 <strrev+0x18>
    45c0:	7c 91       	ld	r23, X
    45c2:	6d 93       	st	X+, r22
    45c4:	70 83       	st	Z, r23
    45c6:	62 91       	ld	r22, -Z
    45c8:	ae 17       	cp	r26, r30
    45ca:	bf 07       	cpc	r27, r31
    45cc:	c8 f3       	brcs	.-14     	; 0x45c0 <strrev+0x10>
    45ce:	08 95       	ret

000045d0 <fputc>:
    45d0:	0f 93       	push	r16
    45d2:	1f 93       	push	r17
    45d4:	cf 93       	push	r28
    45d6:	df 93       	push	r29
    45d8:	fb 01       	movw	r30, r22
    45da:	23 81       	ldd	r18, Z+3	; 0x03
    45dc:	21 fd       	sbrc	r18, 1
    45de:	03 c0       	rjmp	.+6      	; 0x45e6 <fputc+0x16>
    45e0:	8f ef       	ldi	r24, 0xFF	; 255
    45e2:	9f ef       	ldi	r25, 0xFF	; 255
    45e4:	28 c0       	rjmp	.+80     	; 0x4636 <fputc+0x66>
    45e6:	22 ff       	sbrs	r18, 2
    45e8:	16 c0       	rjmp	.+44     	; 0x4616 <fputc+0x46>
    45ea:	46 81       	ldd	r20, Z+6	; 0x06
    45ec:	57 81       	ldd	r21, Z+7	; 0x07
    45ee:	24 81       	ldd	r18, Z+4	; 0x04
    45f0:	35 81       	ldd	r19, Z+5	; 0x05
    45f2:	42 17       	cp	r20, r18
    45f4:	53 07       	cpc	r21, r19
    45f6:	44 f4       	brge	.+16     	; 0x4608 <fputc+0x38>
    45f8:	a0 81       	ld	r26, Z
    45fa:	b1 81       	ldd	r27, Z+1	; 0x01
    45fc:	9d 01       	movw	r18, r26
    45fe:	2f 5f       	subi	r18, 0xFF	; 255
    4600:	3f 4f       	sbci	r19, 0xFF	; 255
    4602:	31 83       	std	Z+1, r19	; 0x01
    4604:	20 83       	st	Z, r18
    4606:	8c 93       	st	X, r24
    4608:	26 81       	ldd	r18, Z+6	; 0x06
    460a:	37 81       	ldd	r19, Z+7	; 0x07
    460c:	2f 5f       	subi	r18, 0xFF	; 255
    460e:	3f 4f       	sbci	r19, 0xFF	; 255
    4610:	37 83       	std	Z+7, r19	; 0x07
    4612:	26 83       	std	Z+6, r18	; 0x06
    4614:	10 c0       	rjmp	.+32     	; 0x4636 <fputc+0x66>
    4616:	eb 01       	movw	r28, r22
    4618:	09 2f       	mov	r16, r25
    461a:	18 2f       	mov	r17, r24
    461c:	00 84       	ldd	r0, Z+8	; 0x08
    461e:	f1 85       	ldd	r31, Z+9	; 0x09
    4620:	e0 2d       	mov	r30, r0
    4622:	09 95       	icall
    4624:	89 2b       	or	r24, r25
    4626:	e1 f6       	brne	.-72     	; 0x45e0 <fputc+0x10>
    4628:	8e 81       	ldd	r24, Y+6	; 0x06
    462a:	9f 81       	ldd	r25, Y+7	; 0x07
    462c:	01 96       	adiw	r24, 0x01	; 1
    462e:	9f 83       	std	Y+7, r25	; 0x07
    4630:	8e 83       	std	Y+6, r24	; 0x06
    4632:	81 2f       	mov	r24, r17
    4634:	90 2f       	mov	r25, r16
    4636:	df 91       	pop	r29
    4638:	cf 91       	pop	r28
    463a:	1f 91       	pop	r17
    463c:	0f 91       	pop	r16
    463e:	08 95       	ret

00004640 <__ultoa_invert>:
    4640:	fa 01       	movw	r30, r20
    4642:	aa 27       	eor	r26, r26
    4644:	28 30       	cpi	r18, 0x08	; 8
    4646:	51 f1       	breq	.+84     	; 0x469c <__ultoa_invert+0x5c>
    4648:	20 31       	cpi	r18, 0x10	; 16
    464a:	81 f1       	breq	.+96     	; 0x46ac <__ultoa_invert+0x6c>
    464c:	e8 94       	clt
    464e:	6f 93       	push	r22
    4650:	6e 7f       	andi	r22, 0xFE	; 254
    4652:	6e 5f       	subi	r22, 0xFE	; 254
    4654:	7f 4f       	sbci	r23, 0xFF	; 255
    4656:	8f 4f       	sbci	r24, 0xFF	; 255
    4658:	9f 4f       	sbci	r25, 0xFF	; 255
    465a:	af 4f       	sbci	r26, 0xFF	; 255
    465c:	b1 e0       	ldi	r27, 0x01	; 1
    465e:	3e d0       	rcall	.+124    	; 0x46dc <__ultoa_invert+0x9c>
    4660:	b4 e0       	ldi	r27, 0x04	; 4
    4662:	3c d0       	rcall	.+120    	; 0x46dc <__ultoa_invert+0x9c>
    4664:	67 0f       	add	r22, r23
    4666:	78 1f       	adc	r23, r24
    4668:	89 1f       	adc	r24, r25
    466a:	9a 1f       	adc	r25, r26
    466c:	a1 1d       	adc	r26, r1
    466e:	68 0f       	add	r22, r24
    4670:	79 1f       	adc	r23, r25
    4672:	8a 1f       	adc	r24, r26
    4674:	91 1d       	adc	r25, r1
    4676:	a1 1d       	adc	r26, r1
    4678:	6a 0f       	add	r22, r26
    467a:	71 1d       	adc	r23, r1
    467c:	81 1d       	adc	r24, r1
    467e:	91 1d       	adc	r25, r1
    4680:	a1 1d       	adc	r26, r1
    4682:	20 d0       	rcall	.+64     	; 0x46c4 <__ultoa_invert+0x84>
    4684:	09 f4       	brne	.+2      	; 0x4688 <__ultoa_invert+0x48>
    4686:	68 94       	set
    4688:	3f 91       	pop	r19
    468a:	2a e0       	ldi	r18, 0x0A	; 10
    468c:	26 9f       	mul	r18, r22
    468e:	11 24       	eor	r1, r1
    4690:	30 19       	sub	r19, r0
    4692:	30 5d       	subi	r19, 0xD0	; 208
    4694:	31 93       	st	Z+, r19
    4696:	de f6       	brtc	.-74     	; 0x464e <__ultoa_invert+0xe>
    4698:	cf 01       	movw	r24, r30
    469a:	08 95       	ret
    469c:	46 2f       	mov	r20, r22
    469e:	47 70       	andi	r20, 0x07	; 7
    46a0:	40 5d       	subi	r20, 0xD0	; 208
    46a2:	41 93       	st	Z+, r20
    46a4:	b3 e0       	ldi	r27, 0x03	; 3
    46a6:	0f d0       	rcall	.+30     	; 0x46c6 <__ultoa_invert+0x86>
    46a8:	c9 f7       	brne	.-14     	; 0x469c <__ultoa_invert+0x5c>
    46aa:	f6 cf       	rjmp	.-20     	; 0x4698 <__ultoa_invert+0x58>
    46ac:	46 2f       	mov	r20, r22
    46ae:	4f 70       	andi	r20, 0x0F	; 15
    46b0:	40 5d       	subi	r20, 0xD0	; 208
    46b2:	4a 33       	cpi	r20, 0x3A	; 58
    46b4:	18 f0       	brcs	.+6      	; 0x46bc <__ultoa_invert+0x7c>
    46b6:	49 5d       	subi	r20, 0xD9	; 217
    46b8:	31 fd       	sbrc	r19, 1
    46ba:	40 52       	subi	r20, 0x20	; 32
    46bc:	41 93       	st	Z+, r20
    46be:	02 d0       	rcall	.+4      	; 0x46c4 <__ultoa_invert+0x84>
    46c0:	a9 f7       	brne	.-22     	; 0x46ac <__ultoa_invert+0x6c>
    46c2:	ea cf       	rjmp	.-44     	; 0x4698 <__ultoa_invert+0x58>
    46c4:	b4 e0       	ldi	r27, 0x04	; 4
    46c6:	a6 95       	lsr	r26
    46c8:	97 95       	ror	r25
    46ca:	87 95       	ror	r24
    46cc:	77 95       	ror	r23
    46ce:	67 95       	ror	r22
    46d0:	ba 95       	dec	r27
    46d2:	c9 f7       	brne	.-14     	; 0x46c6 <__ultoa_invert+0x86>
    46d4:	00 97       	sbiw	r24, 0x00	; 0
    46d6:	61 05       	cpc	r22, r1
    46d8:	71 05       	cpc	r23, r1
    46da:	08 95       	ret
    46dc:	9b 01       	movw	r18, r22
    46de:	ac 01       	movw	r20, r24
    46e0:	0a 2e       	mov	r0, r26
    46e2:	06 94       	lsr	r0
    46e4:	57 95       	ror	r21
    46e6:	47 95       	ror	r20
    46e8:	37 95       	ror	r19
    46ea:	27 95       	ror	r18
    46ec:	ba 95       	dec	r27
    46ee:	c9 f7       	brne	.-14     	; 0x46e2 <__ultoa_invert+0xa2>
    46f0:	62 0f       	add	r22, r18
    46f2:	73 1f       	adc	r23, r19
    46f4:	84 1f       	adc	r24, r20
    46f6:	95 1f       	adc	r25, r21
    46f8:	a0 1d       	adc	r26, r0
    46fa:	08 95       	ret

000046fc <__prologue_saves__>:
    46fc:	2f 92       	push	r2
    46fe:	3f 92       	push	r3
    4700:	4f 92       	push	r4
    4702:	5f 92       	push	r5
    4704:	6f 92       	push	r6
    4706:	7f 92       	push	r7
    4708:	8f 92       	push	r8
    470a:	9f 92       	push	r9
    470c:	af 92       	push	r10
    470e:	bf 92       	push	r11
    4710:	cf 92       	push	r12
    4712:	df 92       	push	r13
    4714:	ef 92       	push	r14
    4716:	ff 92       	push	r15
    4718:	0f 93       	push	r16
    471a:	1f 93       	push	r17
    471c:	cf 93       	push	r28
    471e:	df 93       	push	r29
    4720:	cd b7       	in	r28, 0x3d	; 61
    4722:	de b7       	in	r29, 0x3e	; 62
    4724:	ca 1b       	sub	r28, r26
    4726:	db 0b       	sbc	r29, r27
    4728:	0f b6       	in	r0, 0x3f	; 63
    472a:	f8 94       	cli
    472c:	de bf       	out	0x3e, r29	; 62
    472e:	0f be       	out	0x3f, r0	; 63
    4730:	cd bf       	out	0x3d, r28	; 61
    4732:	09 94       	ijmp

00004734 <__epilogue_restores__>:
    4734:	2a 88       	ldd	r2, Y+18	; 0x12
    4736:	39 88       	ldd	r3, Y+17	; 0x11
    4738:	48 88       	ldd	r4, Y+16	; 0x10
    473a:	5f 84       	ldd	r5, Y+15	; 0x0f
    473c:	6e 84       	ldd	r6, Y+14	; 0x0e
    473e:	7d 84       	ldd	r7, Y+13	; 0x0d
    4740:	8c 84       	ldd	r8, Y+12	; 0x0c
    4742:	9b 84       	ldd	r9, Y+11	; 0x0b
    4744:	aa 84       	ldd	r10, Y+10	; 0x0a
    4746:	b9 84       	ldd	r11, Y+9	; 0x09
    4748:	c8 84       	ldd	r12, Y+8	; 0x08
    474a:	df 80       	ldd	r13, Y+7	; 0x07
    474c:	ee 80       	ldd	r14, Y+6	; 0x06
    474e:	fd 80       	ldd	r15, Y+5	; 0x05
    4750:	0c 81       	ldd	r16, Y+4	; 0x04
    4752:	1b 81       	ldd	r17, Y+3	; 0x03
    4754:	aa 81       	ldd	r26, Y+2	; 0x02
    4756:	b9 81       	ldd	r27, Y+1	; 0x01
    4758:	ce 0f       	add	r28, r30
    475a:	d1 1d       	adc	r29, r1
    475c:	0f b6       	in	r0, 0x3f	; 63
    475e:	f8 94       	cli
    4760:	de bf       	out	0x3e, r29	; 62
    4762:	0f be       	out	0x3f, r0	; 63
    4764:	cd bf       	out	0x3d, r28	; 61
    4766:	ed 01       	movw	r28, r26
    4768:	08 95       	ret

0000476a <__do_global_dtors>:
    476a:	11 e0       	ldi	r17, 0x01	; 1
    476c:	cc e0       	ldi	r28, 0x0C	; 12
    476e:	d1 e0       	ldi	r29, 0x01	; 1
    4770:	04 c0       	rjmp	.+8      	; 0x477a <__do_global_dtors+0x10>
    4772:	fe 01       	movw	r30, r28
    4774:	0e 94 06 20 	call	0x400c	; 0x400c <__tablejump2__>
    4778:	21 96       	adiw	r28, 0x01	; 1
    477a:	cd 30       	cpi	r28, 0x0D	; 13
    477c:	d1 07       	cpc	r29, r17
    477e:	c9 f7       	brne	.-14     	; 0x4772 <__do_global_dtors+0x8>
    4780:	f8 94       	cli

00004782 <__stop_program>:
    4782:	ff cf       	rjmp	.-2      	; 0x4782 <__stop_program>
